(i__main__
MultiTopicWordCounterTs
p1
(dp2
S'topicsWordCounterTs'
p3
(dp4
Vgoog
p5
(iTimeSeries
TimeSeries
p6
(dp7
S'ts'
p8
(dp9
cdatetime
date
p10
(S'\x07\xdb\x0b\x05'
tRp11
ccopy_reg
_reconstructor
p12
(ccollections
Counter
p13
c__builtin__
dict
p14
(dtRp15
sg10
(S'\x07\xdb\x08\x07'
tRp16
g12
(g13
g14
(dtRp17
sg10
(S'\x07\xdb\x0c\x04'
tRp18
g12
(g13
g14
(dtRp19
sg10
(S'\x07\xdb\x06\r'
tRp20
g12
(g13
g14
(dtRp21
sg10
(S'\x07\xdb\x03\x0c'
tRp22
g12
(g13
g14
(dtRp23
sg10
(S'\x07\xdb\t\x18'
tRp24
g12
(g13
g14
(dtRp25
sg10
(S'\x07\xdb\x07\x03'
tRp26
g12
(g13
g14
(dtRp27
sg10
(S'\x07\xdb\x0b\x0c'
tRp28
g12
(g13
g14
(dtRp29
sg10
(S'\x07\xdb\x01\x03'
tRp30
g12
(g13
g14
(dtRp31
sg10
(S'\x07\xdb\x02\x10'
tRp32
g12
(g13
g14
(dtRp33
sg10
(S'\x07\xdb\x04\t'
tRp34
g12
(g13
g14
(dtRp35
sg10
(S'\x07\xdb\x08\x0c'
tRp36
g12
(g13
g14
(dtRp37
sg10
(S'\x07\xdb\x0c\r'
tRp38
g12
(g13
g14
(dtRp39
sg10
(S'\x07\xdb\x06\x16'
tRp40
g12
(g13
g14
(dtRp41
sg10
(S'\x07\xdb\x03\x03'
tRp42
g12
(g13
g14
(dtRp43
sg10
(S'\x07\xdb\t\x13'
tRp44
g12
(g13
g14
(dtRp45
sg10
(S'\x07\xdb\x07\n'
tRp46
g12
(g13
g14
(dtRp47
sg10
(S'\x07\xdb\x0b\x13'
tRp48
g12
(g13
g14
(dtRp49
sg10
(S'\x07\xdb\x01\n'
tRp50
g12
(g13
g14
(dtRp51
sg10
(S'\x07\xdb\x02\t'
tRp52
g12
(g13
g14
(dtRp53
sg10
(S'\x07\xdb\x04\x0e'
tRp54
g12
(g13
g14
(dtRp55
sg10
(S'\x07\xdb\x08\x15'
tRp56
g12
(g13
g14
(dtRp57
sg10
(S'\x07\xdb\x05\n'
tRp58
g12
(g13
g14
(dtRp59
sg10
(S'\x07\xdb\x07\x11'
tRp60
g12
(g13
g14
(dtRp61
sg10
(S'\x07\xdb\n\t'
tRp62
g12
(g13
g14
(dtRp63
sg10
(S'\x07\xdb\x0b\x1a'
tRp64
g12
(g13
g14
(dtRp65
sg10
(S'\x07\xdb\x01\r'
tRp66
g12
(g13
g14
(dtRp67
sg10
(S'\x07\xdb\x02\x02'
tRp68
g12
(g13
g14
(dtRp69
sg10
(S'\x07\xdb\x04\x07'
tRp70
g12
(g13
g14
(dtRp71
sg10
(S'\x07\xdb\x08\x12'
tRp72
g12
(g13
g14
(dtRp73
sg10
(S'\x07\xdb\x05\x05'
tRp74
g12
(g13
g14
(dtRp75
sg10
(S'\x07\xdb\x06\x18'
tRp76
g12
(g13
g14
(dtRp77
sg10
(S'\x07\xdb\x07\x18'
tRp78
g12
(g13
g14
(dp79
Vworking
p80
I1
sVurl
p81
I1
sVtherewith
p82
I1
sVone
p83
I1
sVanyone
p84
I1
sVstopped
p85
I1
sVreply
p86
I1
sVnew
p87
I1
sVworks
p88
I1
sVfind
p89
I1
stRp90
sg10
(S'\x07\xdb\n\x12'
tRp91
g12
(g13
g14
(dtRp92
sg10
(S'\x07\xdb\x01\x14'
tRp93
g12
(g13
g14
(dtRp94
sg10
(S'\x07\xdb\x04\x1c'
tRp95
g12
(g13
g14
(dtRp96
sg10
(S'\x07\xdb\x08\x1b'
tRp97
g12
(g13
g14
(dtRp98
sg10
(S'\x07\xdb\x05\x1c'
tRp99
g12
(g13
g14
(dtRp100
sg10
(S'\x07\xdb\x0c\x12'
tRp101
g12
(g13
g14
(dtRp102
sg10
(S'\x07\xdb\n\x1b'
tRp103
g12
(g13
g14
(dtRp104
sg10
(S'\x07\xdb\x03\x1a'
tRp105
g12
(g13
g14
(dtRp106
sg10
(S'\x07\xdb\t\n'
tRp107
g12
(g13
g14
(dtRp108
sg10
(S'\x07\xdb\x01\x1f'
tRp109
g12
(g13
g14
(dp110
Vcomment
p111
I1
sVsort
p112
I1
sVsomeone
p113
I1
sVworse
p114
I1
sVmeaner
p115
I1
sVmind
p116
I1
sVtalking
p117
I1
sVsay
p118
I3
sVhn
p119
I1
sVstill
p120
I1
sVupvotes.
p121
I1
sVarticles
p122
I1
sVwould
p123
I1
sVp
I1
sValways
p124
I1
sVroughly
p125
I1
sVcomments
p126
I1
sVface
p127
I2
sVthing
p128
I1
sVexample
p129
I1
sVunfortunate
p130
I1
sV18
p131
I1
sVgot
p132
I1
sVnet
p133
I1
sV've
p134
I1
sVfrontpage
p135
I1
sVhope
p136
I1
sVmean
p137
I1
stRp138
sg10
(S'\x07\xdb\x04\x15'
tRp139
g12
(g13
g14
(dtRp140
sg10
(S'\x07\xdb\x05\x17'
tRp141
g12
(g13
g14
(dtRp142
sg10
(S'\x07\xdb\x0c\x1b'
tRp143
g12
(g13
g14
(dtRp144
sg10
(S'\x07\xdb\n\x1c'
tRp145
g12
(g13
g14
(dtRp146
sg10
(S'\x07\xdb\x03\x11'
tRp147
g12
(g13
g14
(dtRp148
sg10
(S'\x07\xdb\t\r'
tRp149
g12
(g13
g14
(dtRp150
sg10
(S'\x07\xdb\x0b\x01'
tRp151
g12
(g13
g14
(dtRp152
sg10
(S'\x07\xdb\x02\x1b'
tRp153
g12
(g13
g14
(dtRp154
sg10
(S'\x07\xdb\x06\x01'
tRp155
g12
(g13
g14
(dtRp156
sg10
(S'\x07\xdb\x03\x08'
tRp157
g12
(g13
g14
(dtRp158
sg10
(S'\x07\xdb\t\x04'
tRp159
g12
(g13
g14
(dtRp160
sg10
(S'\x07\xdb\x07\x07'
tRp161
g12
(g13
g14
(dtRp162
sg10
(S'\x07\xdb\x0b\x08'
tRp163
g12
(g13
g14
(dtRp164
sg10
(S'\x07\xdb\x02\x1c'
tRp165
g12
(g13
g14
(dtRp166
sg10
(S'\x07\xdb\x0c\t'
tRp167
g12
(g13
g14
(dtRp168
sg10
(S'\x07\xdb\x06\n'
tRp169
g12
(g13
g14
(dtRp170
sg10
(S'\x07\xdb\x03\x0f'
tRp171
g12
(g13
g14
(dtRp172
sg10
(S'\x07\xdb\x07\x0e'
tRp173
g12
(g13
g14
(dtRp174
sg10
(S'\x07\xdb\x0b\x0f'
tRp175
g12
(g13
g14
(dtRp176
sg10
(S'\x07\xdb\x01\x06'
tRp177
g12
(g13
g14
(dtRp178
sg10
(S'\x07\xdb\x02\x15'
tRp179
g12
(g13
g14
(dtRp180
sg10
(S'\x07\xdb\x04\n'
tRp181
g12
(g13
g14
(dtRp182
sg10
(S'\x07\xdb\x08\t'
tRp183
g12
(g13
g14
(dtRp184
sg10
(S'\x07\xdb\x05\x0e'
tRp185
g12
(g13
g14
(dtRp186
sg10
(S'\x07\xdb\x0c\x0e'
tRp187
g12
(g13
g14
(dtRp188
sg10
(S'\x07\xdb\x06\x13'
tRp189
g12
(g13
g14
(dtRp190
sg10
(S'\x07\xdb\x03\x06'
tRp191
g12
(g13
g14
(dtRp192
sg10
(S'\x07\xdb\t\x16'
tRp193
g12
(g13
g14
(dtRp194
sg10
(S'\x07\xdb\x07\x15'
tRp195
g12
(g13
g14
(dp196
Vsometimes
p197
I1
sVsignificantly
p198
I1
sVfounder
p199
I1
sVless
p200
I1
sVmoney
p201
I3
sVtax
p202
I2
sVdeal.
p203
I1
sVlong
p204
I1
sVreturn
p205
I1
sVyes
p206
I1
sVreasoning
p207
I1
sVrisk
p208
I1
sVreally
p209
I1
sVhappens
p210
I1
sVdifferent
p211
I1
sVdeal
p212
I1
sV/i
p213
I1
sVrather
p214
I1
sVpay
p215
I1
sVmake
p216
I1
sVtax.
p217
I1
sVaside
p218
I1
sVper
p219
I1
sVtend
p220
I1
sVbetter
p221
I1
sV1-2m
p222
I1
sVenough
p223
I1
sVpretty
p224
I1
sVincome
p225
I1
sVfounders
p226
I3
sVgood
p227
I1
sV's
p228
I3
sVgains
p229
I1
sVbig
p230
I1
sVget
p231
I1
sVstartup
p232
I1
sVcapital
p233
I1
sVchoice
p234
I2
sVearly
p235
I1
sVjob
p236
I1
sVplan
p237
I2
sVacquisitions
p238
I1
sVterm
p239
I1
sVtalent
p240
I5
sVsuccess
p241
I1
sVgetting
p242
I1
sVbackup
p243
I2
sVfailing
p244
I1
sVchance
p245
I1
sVp
I3
sVthough
p246
I1
sVtime
p247
I1
sVusually
p248
I2
sVfirst
p249
I2
sVmakes
p250
I1
sVdivided
p251
I1
sVacquisition
p252
I4
sVmistake
p253
I1
stRp254
sg10
(S'\x07\xdb\n\x05'
tRp255
g12
(g13
g14
(dtRp256
sg10
(S'\x07\xdb\x0b\x16'
tRp257
g12
(g13
g14
(dtRp258
sg10
(S'\x07\xdb\x01\t'
tRp259
g12
(g13
g14
(dtRp260
sg10
(S'\x07\xdb\x02\x0e'
tRp261
g12
(g13
g14
(dtRp262
sg10
(S'\x07\xdb\x04\x03'
tRp263
g12
(g13
g14
(dtRp264
sg10
(S'\x07\xdb\x08\x16'
tRp265
g12
(g13
g14
(dtRp266
sg10
(S'\x07\xdb\x05\t'
tRp267
g12
(g13
g14
(dtRp268
sg10
(S'\x07\xdb\x06\x1c'
tRp269
g12
(g13
g14
(dtRp270
sg10
(S'\x07\xdb\x07\x1c'
tRp271
g12
(g13
g14
(dtRp272
sg10
(S'\x07\xdb\n\x0e'
tRp273
g12
(g13
g14
(dtRp274
sg10
(S'\x07\xdb\x0b\x1d'
tRp275
g12
(g13
g14
(dtRp276
sg10
(S'\x07\xdb\x01\x10'
tRp277
g12
(g13
g14
(dtRp278
sg10
(S'\x07\xdb\x02\x07'
tRp279
g12
(g13
g14
(dtRp280
sg10
(S'\x07\xdb\x04\x18'
tRp281
g12
(g13
g14
(dtRp282
sg10
(S'\x07\xdb\x08\x1f'
tRp283
g12
(g13
g14
(dtRp284
sg10
(S'\x07\xdb\x07\x1b'
tRp285
g12
(g13
g14
(dtRp286
sg10
(S'\x07\xdb\n\x17'
tRp287
g12
(g13
g14
(dtRp288
sg10
(S'\x07\xdb\x01\x1b'
tRp289
g12
(g13
g14
(dtRp290
sg10
(S'\x07\xdb\x04\x11'
tRp291
g12
(g13
g14
(dtRp292
sg10
(S'\x07\xdb\x05\x1b'
tRp293
g12
(g13
g14
(dtRp294
sg10
(S'\x07\xdb\x0c\x17'
tRp295
g12
(g13
g14
(dtRp296
sg10
(S'\x07\xdb\n\x18'
tRp297
g12
(g13
g14
(dtRp298
sg10
(S'\x07\xdb\x03\x1d'
tRp299
g12
(g13
g14
(dtRp300
sg10
(S'\x07\xdb\t\t'
tRp301
g12
(g13
g14
(dtRp302
sg10
(S'\x07\xdb\x04\x16'
tRp303
g12
(g13
g14
(dtRp304
sg10
(S'\x07\xdb\x05\x12'
tRp305
g12
(g13
g14
(dtRp306
sg10
(S'\x07\xdb\x0c\x1c'
tRp307
g12
(g13
g14
(dtRp308
sg10
(S'\x07\xdb\x06\x05'
tRp309
g12
(g13
g14
(dtRp310
sg10
(S'\x07\xdb\x03\x14'
tRp311
g12
(g13
g14
(dtRp312
sg10
(S'\x07\xdb\x0b\x04'
tRp313
g12
(g13
g14
(dtRp314
sg10
(S'\x07\xdb\x02\x18'
tRp315
g12
(g13
g14
(dtRp316
sg10
(S'\x07\xdb\x08\x04'
tRp317
g12
(g13
g14
(dtRp318
sg10
(S'\x07\xdb\x0c\x05'
tRp319
g12
(g13
g14
(dtRp320
sg10
(S'\x07\xdb\x06\x0e'
tRp321
g12
(g13
g14
(dtRp322
sg10
(S'\x07\xdb\x03\x0b'
tRp323
g12
(g13
g14
(dtRp324
sg10
(S'\x07\xdb\t\x1b'
tRp325
g12
(g13
g14
(dtRp326
sg10
(S'\x07\xdb\x07\x02'
tRp327
g12
(g13
g14
(dtRp328
sg10
(S'\x07\xdb\x0b\x0b'
tRp329
g12
(g13
g14
(dp330
Vpre
p331
I1
sV/code
p332
I1
sVcode
p333
I1
sVcompensated
p334
I1
sVhackers
p335
I1
sVpoint
p336
I1
sVmoney
p337
I1
sVca
p338
I1
sVstartup
p339
I2
sVsay
p340
I1
sVvs
p341
I1
sVsimply
p342
I1
sVstartups
p343
I2
sV20m
p344
I2
sVemployees
p345
I2
sVreally
p346
I1
sVinvestors
p347
I3
sVthing
p348
I1
sVamounts
p349
I1
sVmake
p350
I3
sVcooking
p351
I1
sVseems
p352
I1
sVdamage
p353
I1
sV/pre
p354
I1
sVsometimes
p355
I1
sVmuch
p356
I1
sVvolatile
p357
I1
sVdetails
p358
I1
sVfounders
p359
I1
sVstock
p360
I1
sVsound
p361
I1
sVsure
p362
I1
sV's
p363
I1
sVrisk
p364
I2
sVget
p365
I1
sVbig
p366
I1
sVlucky
p367
I1
sVearly
p368
I2
sVknow
p369
I1
sVzynga
p370
I1
sVparticular
p371
I1
sVworld
p372
I1
sVmust
p373
I1
sVcase
p374
I1
sVcooks
p375
I1
sVmade
p376
I1
sVlike
p377
I3
sVgetting
p378
I1
sVcharlie
p379
I1
sVtaking
p380
I1
sVwork
p381
I1
sVn't
p382
I4
sVp
I2
sV're
p383
I1
sVcritical
p384
I1
sVinvolved
p385
I1
sVsmall
p386
I1
sVdone
p387
I1
sVwhole
p388
I1
sVcould
p389
I1
sVshortsighted
p390
I1
sVoverpaid.
p391
I1
stRp392
sg10
(S'\x07\xdb\x01\x02'
tRp393
g12
(g13
g14
(dtRp394
sg10
(S'\x07\xdb\x02\x11'
tRp395
g12
(g13
g14
(dtRp396
sg10
(S'\x07\xdb\x08\r'
tRp397
g12
(g13
g14
(dtRp398
sg10
(S'\x07\xdb\x0c\n'
tRp399
g12
(g13
g14
(dtRp400
sg10
(S'\x07\xdb\x06\x17'
tRp401
g12
(g13
g14
(dtRp402
sg10
(S'\x07\xdb\x03\x02'
tRp403
g12
(g13
g14
(dtRp404
sg10
(S'\x07\xdb\t\x12'
tRp405
g12
(g13
g14
(dtRp406
sg10
(S'\x07\xdb\x07\t'
tRp407
g12
(g13
g14
(dtRp408
sg10
(S'\x07\xdb\n\x01'
tRp409
g12
(g13
g14
(dtRp410
sg10
(S'\x07\xdb\x0b\x12'
tRp411
g12
(g13
g14
(dtRp412
sg10
(S'\x07\xdb\x01\x05'
tRp413
g12
(g13
g14
(dtRp414
sg10
(S'\x07\xdb\x02\n'
tRp415
g12
(g13
g14
(dtRp416
sg10
(S'\x07\xdb\x04\x0f'
tRp417
g12
(g13
g14
(dtRp418
sg10
(S'\x07\xdb\x08\n'
tRp419
g12
(g13
g14
(dtRp420
sg10
(S'\x07\xdb\x05\r'
tRp421
g12
(g13
g14
(dtRp422
sg10
(S'\x07\xdb\x06\x10'
tRp423
g12
(g13
g14
(dtRp424
sg10
(S'\x07\xdb\t\x15'
tRp425
g12
(g13
g14
(dtRp426
sg10
(S'\x07\xdb\x07\x10'
tRp427
g12
(g13
g14
(dtRp428
sg10
(S'\x07\xdb\n\n'
tRp429
g12
(g13
g14
(dtRp430
sg10
(S'\x07\xdb\x0b\x19'
tRp431
g12
(g13
g14
(dtRp432
sg10
(S'\x07\xdb\x01\x0c'
tRp433
g12
(g13
g14
(dtRp434
sg10
(S'\x07\xdb\x02\x03'
tRp435
g12
(g13
g14
(dtRp436
sg10
(S'\x07\xdb\x04\x04'
tRp437
g12
(g13
g14
(dtRp438
sg10
(S'\x07\xdb\x08\x13'
tRp439
g12
(g13
g14
(dtRp440
sg10
(S'\x07\xdb\x05\x04'
tRp441
g12
(g13
g14
(dtRp442
sg10
(S'\x07\xdb\x06\x19'
tRp443
g12
(g13
g14
(dtRp444
sg10
(S'\x07\xdb\x07\x1f'
tRp445
g12
(g13
g14
(dtRp446
sg10
(S'\x07\xdb\n\x13'
tRp447
g12
(g13
g14
(dtRp448
sg10
(S'\x07\xdb\x01\x17'
tRp449
g12
(g13
g14
(dtRp450
sg10
(S'\x07\xdb\x02\x04'
tRp451
g12
(g13
g14
(dtRp452
sg10
(S'\x07\xdb\x04\x1d'
tRp453
g12
(g13
g14
(dtRp454
sg10
(S'\x07\xdb\x08\x18'
tRp455
g12
(g13
g14
(dtRp456
sg10
(S'\x07\xdb\x05\x1f'
tRp457
g12
(g13
g14
(dtRp458
sg10
(S'\x07\xdb\x0c\x13'
tRp459
g12
(g13
g14
(dtRp460
sg10
(S'\x07\xdb\n\x14'
tRp461
g12
(g13
g14
(dtRp462
sg10
(S'\x07\xdb\x03\x19'
tRp463
g12
(g13
g14
(dtRp464
sg10
(S'\x07\xdb\x01\x1e'
tRp465
g12
(g13
g14
(dtRp466
sg10
(S'\x07\xdb\x04\x12'
tRp467
g12
(g13
g14
(dtRp468
sg10
(S'\x07\xdb\x05\x16'
tRp469
g12
(g13
g14
(dtRp470
sg10
(S'\x07\xdb\x0c\x18'
tRp471
g12
(g13
g14
(dtRp472
sg10
(S'\x07\xdb\n\x1d'
tRp473
g12
(g13
g14
(dtRp474
sg10
(S'\x07\xdb\x03\x10'
tRp475
g12
(g13
g14
(dtRp476
sg10
(S'\x07\xdb\t\x0c'
tRp477
g12
(g13
g14
(dtRp478
sg10
(S'\x07\xdb\x05\x11'
tRp479
g12
(g13
g14
(dtRp480
sg10
(S'\x07\xdb\x0c\x01'
tRp481
g12
(g13
g14
(dtRp482
sg10
(S'\x07\xdb\x06\x02'
tRp483
g12
(g13
g14
(dtRp484
sg10
(S'\x07\xdb\x03\x17'
tRp485
g12
(g13
g14
(dtRp486
sg10
(S'\x07\xdb\t\x07'
tRp487
g12
(g13
g14
(dtRp488
sg10
(S'\x07\xdb\x07\x06'
tRp489
g12
(g13
g14
(dtRp490
sg10
(S'\x07\xdb\x0b\x07'
tRp491
g12
(g13
g14
(dtRp492
sg10
(S'\x07\xdb\x08\x01'
tRp493
g12
(g13
g14
(dtRp494
sg10
(S'\x07\xdb\x0c\x06'
tRp495
g12
(g13
g14
(dp496
Vseeing
p497
I1
sVparticularly
p498
I1
sVshow
p499
I1
sVnumber
p500
I1
sVmonth
p501
I2
sVgo
p502
I1
sVfollowed
p503
I1
sVrarely
p504
I1
sVpost
p505
I1
sVwould
p506
I4
sVmonthly
p507
I1
sVgraph
p508
I3
sVdue
p509
I1
sVresort
p510
I1
sVway
p511
I1
sVspike
p512
I1
sVsurprised
p513
I1
sVsomeone
p514
I1
sVmeans
p515
I1
sVshowing
p516
I1
sVexactly
p517
I1
sVmatters
p518
I1
sVday
p519
I1
sVgraphic
p520
I1
sVlook
p521
I1
sVshowed
p522
I1
sVnicely
p523
I1
sValways
p524
I1
sVsee
p525
I1
sVus
p526
I1
sVn't
p527
I1
sVp
I4
sVgood
p528
I1
sV're
p529
I1
sVneat.
p530
I1
sVsteep
p531
I1
sValmost
p532
I1
sVdecember
p533
I2
sVsuspicious
p534
I2
sVdubious
p535
I1
sVrate
p536
I1
sVgrowth
p537
I3
sVnumbers
p538
I1
sVspecial
p539
I1
sVreally
p540
I1
sV/i
p541
I1
sVmake
p542
I2
sVcumulative
p543
I3
sVgraph.
p544
I1
sVbad
p545
I1
sVper
p546
I2
sVinterested
p547
I1
sVordinary
p548
I1
sV's
p549
I4
sVlinear
p550
I1
sVdownloads
p551
I3
sVdecreasing
p552
I1
sV'd
p553
I1
sVi.e
p554
I1
sV'm
p555
I1
sVpromotion
p556
I1
sVhappening.
p557
I1
sV6
I1
sVtricks
p558
I1
sVlines
p559
I1
sVdays
p560
I1
sVones.
p561
I1
sVgraphs
p562
I1
sVwithout
p563
I1
sVmassive
p564
I1
sVtime
p565
I1
sVhyperlinear
p566
I1
stRp567
sg10
(S'\x07\xdb\x06\x0b'
tRp568
g12
(g13
g14
(dtRp569
sg10
(S'\x07\xdb\x03\x0e'
tRp570
g12
(g13
g14
(dtRp571
sg10
(S'\x07\xdb\t\x1e'
tRp572
g12
(g13
g14
(dtRp573
sg10
(S'\x07\xdb\x07\r'
tRp574
g12
(g13
g14
(dtRp575
sg10
(S'\x07\xdb\x0b\x0e'
tRp576
g12
(g13
g14
(dtRp577
sg10
(S'\x07\xdb\x01\x01'
tRp578
g12
(g13
g14
(dtRp579
sg10
(S'\x07\xdb\x02\x16'
tRp580
g12
(g13
g14
(dtRp581
sg10
(S'\x07\xdb\x04\x0b'
tRp582
g12
(g13
g14
(dtRp583
sg10
(S'\x07\xdb\x08\x0e'
tRp584
g12
(g13
g14
(dtRp585
sg10
(S'\x07\xdb\x0c\x0f'
tRp586
g12
(g13
g14
(dtRp587
sg10
(S'\x07\xdb\x06\x14'
tRp588
g12
(g13
g14
(dtRp589
sg10
(S'\x07\xdb\x03\x05'
tRp590
g12
(g13
g14
(dtRp591
sg10
(S'\x07\xdb\t\x11'
tRp592
g12
(g13
g14
(dtRp593
sg10
(S'\x07\xdb\x07\x14'
tRp594
g12
(g13
g14
(dtRp595
sg10
(S'\x07\xdb\n\x06'
tRp596
g12
(g13
g14
(dtRp597
sg10
(S'\x07\xdb\x0b\x15'
tRp598
g12
(g13
g14
(dtRp599
sg10
(S'\x07\xdb\x01\x08'
tRp600
g12
(g13
g14
(dtRp601
sg10
(S'\x07\xdb\x02\x0f'
tRp602
g12
(g13
g14
(dtRp603
sg10
(S'\x07\xdb\x08\x17'
tRp604
g12
(g13
g14
(dtRp605
sg10
(S'\x07\xdb\x05\x08'
tRp606
g12
(g13
g14
(dtRp607
sg10
(S'\x07\xdb\x06\x1d'
tRp608
g12
(g13
g14
(dtRp609
sg10
(S'\x07\xdb\x07\x13'
tRp610
g12
(g13
g14
(dtRp611
sg10
(S'\x07\xdb\n\x0f'
tRp612
g12
(g13
g14
(dtRp613
sg10
(S'\x07\xdb\x0b\x1c'
tRp614
g12
(g13
g14
(dtRp615
sg10
(S'\x07\xdb\x01\x13'
tRp616
g12
(g13
g14
(dtRp617
sg10
(S'\x07\xdb\x04\x19'
tRp618
g12
(g13
g14
(dtRp619
sg10
(S'\x07\xdb\x08\x1c'
tRp620
g12
(g13
g14
(dtRp621
sg10
(S'\x07\xdb\x05\x03'
tRp622
g12
(g13
g14
(dtRp623
sg10
(S'\x07\xdb\x07\x1a'
tRp624
g12
(g13
g14
(dtRp625
sg10
(S'\x07\xdb\n\x10'
tRp626
g12
(g13
g14
(dtRp627
sg10
(S'\x07\xdb\x01\x1a'
tRp628
g12
(g13
g14
(dtRp629
sg10
(S'\x07\xdb\x04\x1e'
tRp630
g12
(g13
g14
(dp631
Vand/or
p632
I1
sVdescribing
p633
I1
sVway
p634
I1
sVdeal
p635
I1
sVmeans
p636
I1
sVthings
p637
I1
sVknew
p638
I1
sVsurely
p639
I1
sVinnocent
p640
I1
sVroutine
p641
I1
sVseem
p642
I1
sVsensationalist
p643
I1
sVmakes
p644
I1
sVbigger
p645
I1
sVlike
p646
I1
stRp647
sg10
(S'\x07\xdb\x05\x1a'
tRp648
g12
(g13
g14
(dtRp649
sg10
(S'\x07\xdb\x0c\x14'
tRp650
g12
(g13
g14
(dtRp651
sg10
(S'\x07\xdb\n\x19'
tRp652
g12
(g13
g14
(dtRp653
sg10
(S'\x07\xdb\x03\x1c'
tRp654
g12
(g13
g14
(dtRp655
sg10
(S'\x07\xdb\t\x08'
tRp656
g12
(g13
g14
(dtRp657
sg10
(S'\x07\xdb\x01\x1d'
tRp658
g12
(g13
g14
(dtRp659
sg10
(S'\x07\xdb\x04\x17'
tRp660
g12
(g13
g14
(dtRp661
sg10
(S'\x07\xdb\x05\x15'
tRp662
g12
(g13
g14
(dtRp663
sg10
(S'\x07\xdb\x0c\x1d'
tRp664
g12
(g13
g14
(dtRp665
sg10
(S'\x07\xdb\x06\x06'
tRp666
g12
(g13
g14
(dtRp667
sg10
(S'\x07\xdb\x03\x13'
tRp668
g12
(g13
g14
(dtRp669
sg10
(S'\x07\xdb\t\x03'
tRp670
g12
(g13
g14
(dtRp671
sg10
(S'\x07\xdb\x0b\x03'
tRp672
g12
(g13
g14
(dtRp673
sg10
(S'\x07\xdb\x02\x19'
tRp674
g12
(g13
g14
(dtRp675
sg10
(S'\x07\xdb\x08\x05'
tRp676
g12
(g13
g14
(dtRp677
sg10
(S'\x07\xdb\x0c\x02'
tRp678
g12
(g13
g14
(dtRp679
sg10
(S'\x07\xdb\x06\x0f'
tRp680
g12
(g13
g14
(dtRp681
sg10
(S'\x07\xdb\x03\n'
tRp682
g12
(g13
g14
(dtRp683
sg10
(S'\x07\xdb\t\x1a'
tRp684
g12
(g13
g14
(dtRp685
sg10
(S'\x07\xdb\x07\x01'
tRp686
g12
(g13
g14
(dtRp687
sg10
(S'\x07\xdb\x0b\n'
tRp688
g12
(g13
g14
(dtRp689
sg10
(S'\x07\xdb\x02\x12'
tRp690
g12
(g13
g14
(dtRp691
sg10
(S'\x07\xdb\x08\x02'
tRp692
g12
(g13
g14
(dtRp693
sg10
(S'\x07\xdb\x0c\x0b'
tRp694
g12
(g13
g14
(dtRp695
sg10
(S'\x07\xdb\x06\x08'
tRp696
g12
(g13
g14
(dtRp697
sg10
(S'\x07\xdb\x03\x01'
tRp698
g12
(g13
g14
(dtRp699
sg10
(S'\x07\xdb\t\x1d'
tRp700
g12
(g13
g14
(dtRp701
sg10
(S'\x07\xdb\x07\x08'
tRp702
g12
(g13
g14
(dtRp703
sg10
(S'\x07\xdb\n\x02'
tRp704
g12
(g13
g14
(dtRp705
sg10
(S'\x07\xdb\x0b\x11'
tRp706
g12
(g13
g14
(dp707
Vsort
p708
I1
sVnotice
p709
I1
sVgoogle
p710
I1
sVposting
p711
I1
sVunbanned
p712
I1
sVtwitter
p713
I1
sVsite
p714
I2
sVbanned
p715
I1
sVpost
p716
I1
sVfat-fingered
p717
I1
sVlonger
p718
I1
sVhappens
p719
I1
sVtakes
p720
I2
sVwould
p721
I1
sVspace
p722
I1
sVadmin
p723
I1
sVplease
p724
I1
sVaccidentally
p725
I1
sVus
p726
I2
sVfrontpage
p727
I1
sVthing
p728
I1
sVinstead
p729
I1
sVemail
p730
I1
stRp731
sg10
(S'\x07\xdb\x01\x04'
tRp732
g12
(g13
g14
(dtRp733
sg10
(S'\x07\xdb\x02\x0b'
tRp734
g12
(g13
g14
(dtRp735
sg10
(S'\x07\xdb\x04\x0c'
tRp736
g12
(g13
g14
(dtRp737
sg10
(S'\x07\xdb\x08\x0b'
tRp738
g12
(g13
g14
(dtRp739
sg10
(S'\x07\xdb\x05\x0c'
tRp740
g12
(g13
g14
(dtRp741
sg10
(S'\x07\xdb\x06\x11'
tRp742
g12
(g13
g14
(dtRp743
sg10
(S'\x07\xdb\t\x14'
tRp744
g12
(g13
g14
(dtRp745
sg10
(S'\x07\xdb\x07\x17'
tRp746
g12
(g13
g14
(dtRp747
sg10
(S'\x07\xdb\n\x0b'
tRp748
g12
(g13
g14
(dtRp749
sg10
(S'\x07\xdb\x0b\x18'
tRp750
g12
(g13
g14
(dtRp751
sg10
(S'\x07\xdb\x01\x0f'
tRp752
g12
(g13
g14
(dtRp753
sg10
(S'\x07\xdb\x02\x0c'
tRp754
g12
(g13
g14
(dtRp755
sg10
(S'\x07\xdb\x04\x05'
tRp756
g12
(g13
g14
(dtRp757
sg10
(S'\x07\xdb\x08\x10'
tRp758
g12
(g13
g14
(dtRp759
sg10
(S'\x07\xdb\x05\x07'
tRp760
g12
(g13
g14
(dtRp761
sg10
(S'\x07\xdb\x06\x1a'
tRp762
g12
(g13
g14
(dtRp763
sg10
(S'\x07\xdb\x07\x1e'
tRp764
g12
(g13
g14
(dtRp765
sg10
(S'\x07\xdb\n\x0c'
tRp766
g12
(g13
g14
(dtRp767
sg10
(S'\x07\xdb\x01\x16'
tRp768
g12
(g13
g14
(dtRp769
sg10
(S'\x07\xdb\x02\x05'
tRp770
g12
(g13
g14
(dp771
Vwritten
p772
I1
sValready
p773
I1
sV's
p774
I2
sVhttp
p775
I1
sVarc
p776
I1
sVknew
p777
I1
sVserver
p778
I1
stRp779
sg10
(S'\x07\xdb\x04\x1a'
tRp780
g12
(g13
g14
(dp781
Vsaying
p782
I1
sVright
p783
I1
sV's
p784
I1
sVoften
p785
I1
sVcase.
p786
I1
sVpost
p787
I1
sVheard
p788
I1
sV'd
p789
I1
sVhn
p790
I1
sVnasty
p791
I2
sV've
p792
I1
sVguys
p793
I1
sVfind
p794
I1
sVachievement
p795
I1
sVcelebrating
p796
I1
sVbelittling
p797
I1
sVthough
p798
I1
sVcomments
p799
I1
sVactually
p800
I1
sVbetter
p801
I1
sVp
I1
sVgoing
p802
I1
sVhonestly
p803
I1
sV're
p804
I1
stRp805
sg10
(S'\x07\xdb\x08\x19'
tRp806
g12
(g13
g14
(dtRp807
sg10
(S'\x07\xdb\x05\x1e'
tRp808
g12
(g13
g14
(dtRp809
sg10
(S'\x07\xdb\x0c\x10'
tRp810
g12
(g13
g14
(dtRp811
sg10
(S'\x07\xdb\n\x15'
tRp812
g12
(g13
g14
(dtRp813
sg10
(S'\x07\xdb\x03\x18'
tRp814
g12
(g13
g14
(dtRp815
sg10
(S'\x07\xdb\x01\x19'
tRp816
g12
(g13
g14
(dtRp817
sg10
(S'\x07\xdb\x04\x13'
tRp818
g12
(g13
g14
(dtRp819
sg10
(S'\x07\xdb\x05\x19'
tRp820
g12
(g13
g14
(dtRp821
sg10
(S'\x07\xdb\x0c\x19'
tRp822
g12
(g13
g14
(dtRp823
sg10
(S'\x07\xdb\n\x1e'
tRp824
g12
(g13
g14
(dtRp825
sg10
(S'\x07\xdb\x03\x1f'
tRp826
g12
(g13
g14
(dtRp827
sg10
(S'\x07\xdb\t\x0f'
tRp828
g12
(g13
g14
(dtRp829
sg10
(S'\x07\xdb\x05\x10'
tRp830
g12
(g13
g14
(dtRp831
sg10
(S'\x07\xdb\x0c\x1e'
tRp832
g12
(g13
g14
(dtRp833
sg10
(S'\x07\xdb\x06\x03'
tRp834
g12
(g13
g14
(dtRp835
sg10
(S'\x07\xdb\x03\x16'
tRp836
g12
(g13
g14
(dtRp837
sg10
(S'\x07\xdb\t\x06'
tRp838
g12
(g13
g14
(dtRp839
sg10
(S'\x07\xdb\x07\x05'
tRp840
g12
(g13
g14
(dtRp841
sg10
(S'\x07\xdb\x0b\x06'
tRp842
g12
(g13
g14
(dtRp843
sg10
(S'\x07\xdb\x08\x06'
tRp844
g12
(g13
g14
(dtRp845
sg10
(S'\x07\xdb\x0c\x07'
tRp846
g12
(g13
g14
(dtRp847
sg10
(S'\x07\xdb\x06\x0c'
tRp848
g12
(g13
g14
(dtRp849
sg10
(S'\x07\xdb\x03\r'
tRp850
g12
(g13
g14
(dtRp851
sg10
(S'\x07\xdb\t\x19'
tRp852
g12
(g13
g14
(dtRp853
sg10
(S'\x07\xdb\x07\x0c'
tRp854
g12
(g13
g14
(dtRp855
sg10
(S'\x07\xdb\x0b\r'
tRp856
g12
(g13
g14
(dtRp857
sg10
(S'\x07\xdb\x02\x17'
tRp858
g12
(g13
g14
(dtRp859
sg10
(S'\x07\xdb\x04\x08'
tRp860
g12
(g13
g14
(dtRp861
sg10
(S'\x07\xdb\x08\x0f'
tRp862
g12
(g13
g14
(dtRp863
sg10
(S'\x07\xdb\x0c\x0c'
tRp864
g12
(g13
g14
(dtRp865
sg10
(S'\x07\xdb\x06\x15'
tRp866
g12
(g13
g14
(dtRp867
sg10
(S'\x07\xdb\x03\x04'
tRp868
g12
(g13
g14
(dtRp869
sg10
(S'\x07\xdb\t\x10'
tRp870
g12
(g13
g14
(dtRp871
sg10
(S'\x07\xdb\x07\x0b'
tRp872
g12
(g13
g14
(dtRp873
sg10
(S'\x07\xdb\n\x07'
tRp874
g12
(g13
g14
(dtRp875
sg10
(S'\x07\xdb\x0b\x14'
tRp876
g12
(g13
g14
(dtRp877
sg10
(S'\x07\xdb\x01\x0b'
tRp878
g12
(g13
g14
(dtRp879
sg10
(S'\x07\xdb\x02\x08'
tRp880
g12
(g13
g14
(dtRp881
sg10
(S'\x07\xdb\x04\x01'
tRp882
g12
(g13
g14
(dtRp883
sg10
(S'\x07\xdb\x08\x14'
tRp884
g12
(g13
g14
(dtRp885
sg10
(S'\x07\xdb\x05\x0b'
tRp886
g12
(g13
g14
(dtRp887
sg10
(S'\x07\xdb\x06\x1e'
tRp888
g12
(g13
g14
(dtRp889
sg10
(S'\x07\xdb\x07\x12'
tRp890
g12
(g13
g14
(dtRp891
sg10
(S'\x07\xdb\n\x08'
tRp892
g12
(g13
g14
(dtRp893
sg10
(S'\x07\xdb\x0b\x1b'
tRp894
g12
(g13
g14
(dtRp895
sg10
(S'\x07\xdb\x01\x12'
tRp896
g12
(g13
g14
(dtRp897
sg10
(S'\x07\xdb\x02\x01'
tRp898
g12
(g13
g14
(dp899
Vgoogle
p900
I1
sVstatements
p901
I1
sVconsider
p902
I1
sVinvestors
p903
I1
sVpeople
p904
I2
sVable
p905
I1
sVone
p906
I1
sV''
p907
I2
sVactive
p908
I1
sVjustification
p909
I1
sVsolutions
p910
I1
sVseem
p911
I1
sVapparently
p912
I1
sVrelationships
p913
I1
sVrely
p914
I1
sVconsumers
p915
I1
sVremind
p916
I1
sVsexual
p917
I3
sVmake
p918
I1
sVseems
p919
I1
sVrelations
p920
I2
sVrealize
p921
I1
sVenough
p922
I1
sVpotential
p923
I1
sVcall
p924
I1
sVtechnology
p925
I1
sVextreme
p926
I1
sVmight
p927
I1
sVinferior
p928
I1
sVhappened
p929
I1
sV``
p930
I6
sVwoman
p931
I1
sV's
p932
I3
sVworse
p933
I1
sVfar
p934
I1
sVproblems
p935
I1
sVcertainly
p936
I1
sVnarrowness
p937
I2
sVevasions
p938
I1
sVcopy
p939
I1
sVordinary
p940
I1
sVcare
p941
I2
sVdefinition
p942
I2
sVsearch
p943
I1
sVimplies
p944
I1
sVevasion
p945
I1
sVe.g
p946
I1
sVbing
p947
I1
sVballpark
p948
I1
sVparticipant.
p949
I1
sVn't
p950
I4
sVp
I2
sVsolve
p951
I1
sVsmart
p952
I1
sVemployees
p953
I1
sVproblem
p954
I1
sVmicrosoft
p955
I2
stRp956
sg10
(S'\x07\xdb\x04\x06'
tRp957
g12
(g13
g14
(dtRp958
sg10
(S'\x07\xdb\x08\x1d'
tRp959
g12
(g13
g14
(dtRp960
sg10
(S'\x07\xdb\x05\x02'
tRp961
g12
(g13
g14
(dtRp962
sg10
(S'\x07\xdb\x07\x19'
tRp963
g12
(g13
g14
(dp964
Vsure
p965
I1
sVtemporary
p966
I1
sVnever
p967
I1
sVmind
p968
I1
sVglitch
p969
I1
sVenough
p970
I1
sVok
p971
I1
sVworks
p972
I1
sVmust
p973
I1
stRp974
sg10
(S'\x07\xdb\n\x11'
tRp975
g12
(g13
g14
(dtRp976
sg10
(S'\x07\xdb\x01\x15'
tRp977
g12
(g13
g14
(dtRp978
sg10
(S'\x07\xdb\x08\x1a'
tRp979
g12
(g13
g14
(dtRp980
sg10
(S'\x07\xdb\x05\x1d'
tRp981
g12
(g13
g14
(dtRp982
sg10
(S'\x07\xdb\x0c\x15'
tRp983
g12
(g13
g14
(dtRp984
sg10
(S'\x07\xdb\n\x1a'
tRp985
g12
(g13
g14
(dtRp986
sg10
(S'\x07\xdb\x03\x1b'
tRp987
g12
(g13
g14
(dtRp988
sg10
(S'\x07\xdb\t\x0b'
tRp989
g12
(g13
g14
(dtRp990
sg10
(S'\x07\xdb\x01\x1c'
tRp991
g12
(g13
g14
(dtRp992
sg10
(S'\x07\xdb\x04\x14'
tRp993
g12
(g13
g14
(dtRp994
sg10
(S'\x07\xdb\x05\x14'
tRp995
g12
(g13
g14
(dtRp996
sg10
(S'\x07\xdb\x0c\x1a'
tRp997
g12
(g13
g14
(dtRp998
sg10
(S'\x07\xdb\x06\x07'
tRp999
g12
(g13
g14
(dtRp1000
sg10
(S'\x07\xdb\x03\x12'
tRp1001
g12
(g13
g14
(dtRp1002
sg10
(S'\x07\xdb\t\x02'
tRp1003
g12
(g13
g14
(dtRp1004
sg10
(S'\x07\xdb\x0b\x02'
tRp1005
g12
(g13
g14
(dtRp1006
sg10
(S'\x07\xdb\x02\x1a'
tRp1007
g12
(g13
g14
(dtRp1008
sg10
(S'\x07\xdb\x0c\x03'
tRp1009
g12
(g13
g14
(dtRp1010
sg10
(S'\x07\xdb\x03\t'
tRp1011
g12
(g13
g14
(dtRp1012
sg10
(S'\x07\xdb\t\x05'
tRp1013
g12
(g13
g14
(dp1014
V's
p1015
I1
sVinefficient
p1016
I1
sVcalls
p1017
I1
sVmeans
p1018
I1
sVnumber
p1019
I1
sVper
p1020
I2
sVmeaningless
p1021
I1
sV10,000
p1022
I1
sVlikely
p1023
I1
sVperson
p1024
I1
sVeither
p1025
I1
sV2
I1
sV're
p1026
I1
sVday
p1027
I1
sVunderestimate
p1028
I1
stRp1029
sg10
(S'\x07\xdb\x0b\t'
tRp1030
g12
(g13
g14
(dtRp1031
sg10
(S'\x07\xdb\x02\x13'
tRp1032
g12
(g13
g14
(dtRp1033
sg10
(S'\x07\xdb\x08\x03'
tRp1034
g12
(g13
g14
(dtRp1035
sg10
(S'\x07\xdb\x0c\x08'
tRp1036
g12
(g13
g14
(dtRp1037
sg10
(S'\x07\xdb\x06\t'
tRp1038
g12
(g13
g14
(dtRp1039
sg10
(S'\x07\xdb\t\x1c'
tRp1040
g12
(g13
g14
(dtRp1041
sg10
(S'\x07\xdb\x07\x0f'
tRp1042
g12
(g13
g14
(dtRp1043
sg10
(S'\x07\xdb\n\x03'
tRp1044
g12
(g13
g14
(dtRp1045
sg10
(S'\x07\xdb\x0b\x10'
tRp1046
g12
(g13
g14
(dtRp1047
sg10
(S'\x07\xdb\x01\x07'
tRp1048
g12
(g13
g14
(dtRp1049
sg10
(S'\x07\xdb\x02\x14'
tRp1050
g12
(g13
g14
(dtRp1051
sg10
(S'\x07\xdb\x04\r'
tRp1052
g12
(g13
g14
(dtRp1053
sg10
(S'\x07\xdb\x08\x08'
tRp1054
g12
(g13
g14
(dp1055
Vrespond
p1056
I1
sVset
p1057
I1
sVform
p1058
I1
sVthough
p1059
I1
sVchances
p1060
I1
sVyc
p1061
I1
sVanyway
p1062
I1
sVdeluged
p1063
I1
sVeasiest
p1064
I1
sVsay
p1065
I1
sVsure
p1066
I1
sVhn
p1067
I1
sVquestions
p1068
I1
sVapply
p1069
I2
sVstartups
p1070
I1
sVfind
p1071
I1
sVapplying
p1072
I1
sVwould
p1073
I3
sVp
I1
sVthinking
p1074
I1
sVgenerally
p1075
I1
sVthese.
p1076
I1
sVn't
p1077
I1
sVapplication
p1078
I1
sVbad
p1079
I1
sVones
p1080
I1
sVway
p1081
I1
sVanswer
p1082
I1
sVprobably
p1083
I1
sV're
p1084
I2
sVprecedent
p1085
I1
stRp1086
sg10
(S'\x07\xdb\x05\x0f'
tRp1087
g12
(g13
g14
(dtRp1088
sg10
(S'\x07\xdb\x06\x12'
tRp1089
g12
(g13
g14
(dtRp1090
sg10
(S'\x07\xdb\x03\x07'
tRp1091
g12
(g13
g14
(dtRp1092
sg10
(S'\x07\xdb\t\x17'
tRp1093
g12
(g13
g14
(dtRp1094
sg10
(S'\x07\xdb\x07\x16'
tRp1095
g12
(g13
g14
(dtRp1096
sg10
(S'\x07\xdb\n\x04'
tRp1097
g12
(g13
g14
(dtRp1098
sg10
(S'\x07\xdb\x0b\x17'
tRp1099
g12
(g13
g14
(dtRp1100
sg10
(S'\x07\xdb\x01\x0e'
tRp1101
g12
(g13
g14
(dtRp1102
sg10
(S'\x07\xdb\x02\r'
tRp1103
g12
(g13
g14
(dtRp1104
sg10
(S'\x07\xdb\x04\x02'
tRp1105
g12
(g13
g14
(dtRp1106
sg10
(S'\x07\xdb\x08\x11'
tRp1107
g12
(g13
g14
(dtRp1108
sg10
(S'\x07\xdb\x05\x06'
tRp1109
g12
(g13
g14
(dtRp1110
sg10
(S'\x07\xdb\x06\x1b'
tRp1111
g12
(g13
g14
(dtRp1112
sg10
(S'\x07\xdb\x07\x1d'
tRp1113
g12
(g13
g14
(dtRp1114
sg10
(S'\x07\xdb\n\r'
tRp1115
g12
(g13
g14
(dtRp1116
sg10
(S'\x07\xdb\x0b\x1e'
tRp1117
g12
(g13
g14
(dtRp1118
sg10
(S'\x07\xdb\x01\x11'
tRp1119
g12
(g13
g14
(dtRp1120
sg10
(S'\x07\xdb\x02\x06'
tRp1121
g12
(g13
g14
(dtRp1122
sg10
(S'\x07\xdb\x04\x1b'
tRp1123
g12
(g13
g14
(dtRp1124
sg10
(S'\x07\xdb\x08\x1e'
tRp1125
g12
(g13
g14
(dtRp1126
sg10
(S'\x07\xdb\x05\x01'
tRp1127
g12
(g13
g14
(dtRp1128
sg10
(S'\x07\xdb\x0c\x11'
tRp1129
g12
(g13
g14
(dtRp1130
sg10
(S'\x07\xdb\n\x16'
tRp1131
g12
(g13
g14
(dtRp1132
sg10
(S'\x07\xdb\x01\x18'
tRp1133
g12
(g13
g14
(dtRp1134
sg10
(S'\x07\xdb\x04\x10'
tRp1135
g12
(g13
g14
(dtRp1136
sg10
(S'\x07\xdb\x05\x18'
tRp1137
g12
(g13
g14
(dtRp1138
sg10
(S'\x07\xdb\x0c\x16'
tRp1139
g12
(g13
g14
(dtRp1140
sg10
(S'\x07\xdb\n\x1f'
tRp1141
g12
(g13
g14
(dtRp1142
sg10
(S'\x07\xdb\x03\x1e'
tRp1143
g12
(g13
g14
(dtRp1144
sg10
(S'\x07\xdb\t\x0e'
tRp1145
g12
(g13
g14
(dtRp1146
sg10
(S'\x07\xdb\x05\x13'
tRp1147
g12
(g13
g14
(dtRp1148
sg10
(S'\x07\xdb\x0c\x1f'
tRp1149
g12
(g13
g14
(dtRp1150
sg10
(S'\x07\xdb\x06\x04'
tRp1151
g12
(g13
g14
(dtRp1152
sg10
(S'\x07\xdb\x03\x15'
tRp1153
g12
(g13
g14
(dtRp1154
sg10
(S'\x07\xdb\t\x01'
tRp1155
g12
(g13
g14
(dtRp1156
sg10
(S'\x07\xdb\x07\x04'
tRp1157
g12
(g13
g14
(dtRp1158
ssbsVintc
p1159
(iTimeSeries
TimeSeries
p1160
(dp1161
g8
(dp1162
g10
(S'\x07\xdb\x0b\x05'
tRp1163
g12
(g13
g14
(dtRp1164
sg10
(S'\x07\xdb\x08\x07'
tRp1165
g12
(g13
g14
(dtRp1166
sg10
(S'\x07\xdb\x0c\x04'
tRp1167
g12
(g13
g14
(dtRp1168
sg10
(S'\x07\xdb\x06\r'
tRp1169
g12
(g13
g14
(dtRp1170
sg10
(S'\x07\xdb\x03\x0c'
tRp1171
g12
(g13
g14
(dtRp1172
sg10
(S'\x07\xdb\t\x18'
tRp1173
g12
(g13
g14
(dtRp1174
sg10
(S'\x07\xdb\x07\x03'
tRp1175
g12
(g13
g14
(dtRp1176
sg10
(S'\x07\xdb\x0b\x0c'
tRp1177
g12
(g13
g14
(dtRp1178
sg10
(S'\x07\xdb\x01\x03'
tRp1179
g12
(g13
g14
(dtRp1180
sg10
(S'\x07\xdb\x02\x10'
tRp1181
g12
(g13
g14
(dtRp1182
sg10
(S'\x07\xdb\x04\t'
tRp1183
g12
(g13
g14
(dtRp1184
sg10
(S'\x07\xdb\x08\x0c'
tRp1185
g12
(g13
g14
(dtRp1186
sg10
(S'\x07\xdb\x0c\r'
tRp1187
g12
(g13
g14
(dtRp1188
sg10
(S'\x07\xdb\x06\x16'
tRp1189
g12
(g13
g14
(dtRp1190
sg10
(S'\x07\xdb\x03\x03'
tRp1191
g12
(g13
g14
(dtRp1192
sg10
(S'\x07\xdb\t\x13'
tRp1193
g12
(g13
g14
(dtRp1194
sg10
(S'\x07\xdb\x07\n'
tRp1195
g12
(g13
g14
(dtRp1196
sg10
(S'\x07\xdb\x0b\x13'
tRp1197
g12
(g13
g14
(dtRp1198
sg10
(S'\x07\xdb\x01\n'
tRp1199
g12
(g13
g14
(dtRp1200
sg10
(S'\x07\xdb\x02\t'
tRp1201
g12
(g13
g14
(dtRp1202
sg10
(S'\x07\xdb\x04\x0e'
tRp1203
g12
(g13
g14
(dtRp1204
sg10
(S'\x07\xdb\x08\x15'
tRp1205
g12
(g13
g14
(dtRp1206
sg10
(S'\x07\xdb\x05\n'
tRp1207
g12
(g13
g14
(dtRp1208
sg10
(S'\x07\xdb\x07\x11'
tRp1209
g12
(g13
g14
(dtRp1210
sg10
(S'\x07\xdb\n\t'
tRp1211
g12
(g13
g14
(dtRp1212
sg10
(S'\x07\xdb\x0b\x1a'
tRp1213
g12
(g13
g14
(dtRp1214
sg10
(S'\x07\xdb\x01\r'
tRp1215
g12
(g13
g14
(dtRp1216
sg10
(S'\x07\xdb\x02\x02'
tRp1217
g12
(g13
g14
(dtRp1218
sg10
(S'\x07\xdb\x04\x07'
tRp1219
g12
(g13
g14
(dtRp1220
sg10
(S'\x07\xdb\x08\x12'
tRp1221
g12
(g13
g14
(dtRp1222
sg10
(S'\x07\xdb\x05\x05'
tRp1223
g12
(g13
g14
(dtRp1224
sg10
(S'\x07\xdb\x06\x18'
tRp1225
g12
(g13
g14
(dtRp1226
sg10
(S'\x07\xdb\x07\x18'
tRp1227
g12
(g13
g14
(dtRp1228
sg10
(S'\x07\xdb\n\x12'
tRp1229
g12
(g13
g14
(dtRp1230
sg10
(S'\x07\xdb\x01\x14'
tRp1231
g12
(g13
g14
(dtRp1232
sg10
(S'\x07\xdb\x04\x1c'
tRp1233
g12
(g13
g14
(dtRp1234
sg10
(S'\x07\xdb\x08\x1b'
tRp1235
g12
(g13
g14
(dtRp1236
sg10
(S'\x07\xdb\x05\x1c'
tRp1237
g12
(g13
g14
(dtRp1238
sg10
(S'\x07\xdb\x0c\x12'
tRp1239
g12
(g13
g14
(dtRp1240
sg10
(S'\x07\xdb\n\x1b'
tRp1241
g12
(g13
g14
(dtRp1242
sg10
(S'\x07\xdb\x03\x1a'
tRp1243
g12
(g13
g14
(dtRp1244
sg10
(S'\x07\xdb\t\n'
tRp1245
g12
(g13
g14
(dtRp1246
sg10
(S'\x07\xdb\x01\x1f'
tRp1247
g12
(g13
g14
(dtRp1248
sg10
(S'\x07\xdb\x04\x15'
tRp1249
g12
(g13
g14
(dtRp1250
sg10
(S'\x07\xdb\x05\x17'
tRp1251
g12
(g13
g14
(dtRp1252
sg10
(S'\x07\xdb\x0c\x1b'
tRp1253
g12
(g13
g14
(dtRp1254
sg10
(S'\x07\xdb\n\x1c'
tRp1255
g12
(g13
g14
(dtRp1256
sg10
(S'\x07\xdb\x03\x11'
tRp1257
g12
(g13
g14
(dtRp1258
sg10
(S'\x07\xdb\t\r'
tRp1259
g12
(g13
g14
(dtRp1260
sg10
(S'\x07\xdb\x0b\x01'
tRp1261
g12
(g13
g14
(dtRp1262
sg10
(S'\x07\xdb\x02\x1b'
tRp1263
g12
(g13
g14
(dtRp1264
sg10
(S'\x07\xdb\x06\x01'
tRp1265
g12
(g13
g14
(dtRp1266
sg10
(S'\x07\xdb\x03\x08'
tRp1267
g12
(g13
g14
(dtRp1268
sg10
(S'\x07\xdb\t\x04'
tRp1269
g12
(g13
g14
(dtRp1270
sg10
(S'\x07\xdb\x07\x07'
tRp1271
g12
(g13
g14
(dtRp1272
sg10
(S'\x07\xdb\x0b\x08'
tRp1273
g12
(g13
g14
(dtRp1274
sg10
(S'\x07\xdb\x02\x1c'
tRp1275
g12
(g13
g14
(dtRp1276
sg10
(S'\x07\xdb\x0c\t'
tRp1277
g12
(g13
g14
(dtRp1278
sg10
(S'\x07\xdb\x06\n'
tRp1279
g12
(g13
g14
(dtRp1280
sg10
(S'\x07\xdb\x03\x0f'
tRp1281
g12
(g13
g14
(dtRp1282
sg10
(S'\x07\xdb\x07\x0e'
tRp1283
g12
(g13
g14
(dtRp1284
sg10
(S'\x07\xdb\x0b\x0f'
tRp1285
g12
(g13
g14
(dtRp1286
sg10
(S'\x07\xdb\x01\x06'
tRp1287
g12
(g13
g14
(dtRp1288
sg10
(S'\x07\xdb\x02\x15'
tRp1289
g12
(g13
g14
(dtRp1290
sg10
(S'\x07\xdb\x04\n'
tRp1291
g12
(g13
g14
(dtRp1292
sg10
(S'\x07\xdb\x08\t'
tRp1293
g12
(g13
g14
(dtRp1294
sg10
(S'\x07\xdb\x05\x0e'
tRp1295
g12
(g13
g14
(dtRp1296
sg10
(S'\x07\xdb\x0c\x0e'
tRp1297
g12
(g13
g14
(dtRp1298
sg10
(S'\x07\xdb\x06\x13'
tRp1299
g12
(g13
g14
(dtRp1300
sg10
(S'\x07\xdb\x03\x06'
tRp1301
g12
(g13
g14
(dtRp1302
sg10
(S'\x07\xdb\t\x16'
tRp1303
g12
(g13
g14
(dtRp1304
sg10
(S'\x07\xdb\x07\x15'
tRp1305
g12
(g13
g14
(dtRp1306
sg10
(S'\x07\xdb\n\x05'
tRp1307
g12
(g13
g14
(dtRp1308
sg10
(S'\x07\xdb\x0b\x16'
tRp1309
g12
(g13
g14
(dtRp1310
sg10
(S'\x07\xdb\x01\t'
tRp1311
g12
(g13
g14
(dtRp1312
sg10
(S'\x07\xdb\x02\x0e'
tRp1313
g12
(g13
g14
(dtRp1314
sg10
(S'\x07\xdb\x04\x03'
tRp1315
g12
(g13
g14
(dtRp1316
sg10
(S'\x07\xdb\x08\x16'
tRp1317
g12
(g13
g14
(dtRp1318
sg10
(S'\x07\xdb\x05\t'
tRp1319
g12
(g13
g14
(dtRp1320
sg10
(S'\x07\xdb\x06\x1c'
tRp1321
g12
(g13
g14
(dtRp1322
sg10
(S'\x07\xdb\x07\x1c'
tRp1323
g12
(g13
g14
(dtRp1324
sg10
(S'\x07\xdb\n\x0e'
tRp1325
g12
(g13
g14
(dtRp1326
sg10
(S'\x07\xdb\x0b\x1d'
tRp1327
g12
(g13
g14
(dtRp1328
sg10
(S'\x07\xdb\x01\x10'
tRp1329
g12
(g13
g14
(dtRp1330
sg10
(S'\x07\xdb\x02\x07'
tRp1331
g12
(g13
g14
(dtRp1332
sg10
(S'\x07\xdb\x04\x18'
tRp1333
g12
(g13
g14
(dtRp1334
sg10
(S'\x07\xdb\x08\x1f'
tRp1335
g12
(g13
g14
(dtRp1336
sg10
(S'\x07\xdb\x07\x1b'
tRp1337
g12
(g13
g14
(dtRp1338
sg10
(S'\x07\xdb\n\x17'
tRp1339
g12
(g13
g14
(dtRp1340
sg10
(S'\x07\xdb\x01\x1b'
tRp1341
g12
(g13
g14
(dtRp1342
sg10
(S'\x07\xdb\x04\x11'
tRp1343
g12
(g13
g14
(dtRp1344
sg10
(S'\x07\xdb\x05\x1b'
tRp1345
g12
(g13
g14
(dtRp1346
sg10
(S'\x07\xdb\x0c\x17'
tRp1347
g12
(g13
g14
(dtRp1348
sg10
(S'\x07\xdb\n\x18'
tRp1349
g12
(g13
g14
(dtRp1350
sg10
(S'\x07\xdb\x03\x1d'
tRp1351
g12
(g13
g14
(dtRp1352
sg10
(S'\x07\xdb\t\t'
tRp1353
g12
(g13
g14
(dtRp1354
sg10
(S'\x07\xdb\x04\x16'
tRp1355
g12
(g13
g14
(dtRp1356
sg10
(S'\x07\xdb\x05\x12'
tRp1357
g12
(g13
g14
(dtRp1358
sg10
(S'\x07\xdb\x0c\x1c'
tRp1359
g12
(g13
g14
(dtRp1360
sg10
(S'\x07\xdb\x06\x05'
tRp1361
g12
(g13
g14
(dtRp1362
sg10
(S'\x07\xdb\x03\x14'
tRp1363
g12
(g13
g14
(dtRp1364
sg10
(S'\x07\xdb\x0b\x04'
tRp1365
g12
(g13
g14
(dtRp1366
sg10
(S'\x07\xdb\x02\x18'
tRp1367
g12
(g13
g14
(dtRp1368
sg10
(S'\x07\xdb\x08\x04'
tRp1369
g12
(g13
g14
(dtRp1370
sg10
(S'\x07\xdb\x0c\x05'
tRp1371
g12
(g13
g14
(dtRp1372
sg10
(S'\x07\xdb\x06\x0e'
tRp1373
g12
(g13
g14
(dtRp1374
sg10
(S'\x07\xdb\x03\x0b'
tRp1375
g12
(g13
g14
(dtRp1376
sg10
(S'\x07\xdb\t\x1b'
tRp1377
g12
(g13
g14
(dtRp1378
sg10
(S'\x07\xdb\x07\x02'
tRp1379
g12
(g13
g14
(dtRp1380
sg10
(S'\x07\xdb\x0b\x0b'
tRp1381
g12
(g13
g14
(dtRp1382
sg10
(S'\x07\xdb\x01\x02'
tRp1383
g12
(g13
g14
(dtRp1384
sg10
(S'\x07\xdb\x02\x11'
tRp1385
g12
(g13
g14
(dtRp1386
sg10
(S'\x07\xdb\x08\r'
tRp1387
g12
(g13
g14
(dtRp1388
sg10
(S'\x07\xdb\x0c\n'
tRp1389
g12
(g13
g14
(dtRp1390
sg10
(S'\x07\xdb\x06\x17'
tRp1391
g12
(g13
g14
(dtRp1392
sg10
(S'\x07\xdb\x03\x02'
tRp1393
g12
(g13
g14
(dtRp1394
sg10
(S'\x07\xdb\t\x12'
tRp1395
g12
(g13
g14
(dtRp1396
sg10
(S'\x07\xdb\x07\t'
tRp1397
g12
(g13
g14
(dtRp1398
sg10
(S'\x07\xdb\n\x01'
tRp1399
g12
(g13
g14
(dtRp1400
sg10
(S'\x07\xdb\x0b\x12'
tRp1401
g12
(g13
g14
(dtRp1402
sg10
(S'\x07\xdb\x01\x05'
tRp1403
g12
(g13
g14
(dtRp1404
sg10
(S'\x07\xdb\x02\n'
tRp1405
g12
(g13
g14
(dtRp1406
sg10
(S'\x07\xdb\x04\x0f'
tRp1407
g12
(g13
g14
(dtRp1408
sg10
(S'\x07\xdb\x08\n'
tRp1409
g12
(g13
g14
(dtRp1410
sg10
(S'\x07\xdb\x05\r'
tRp1411
g12
(g13
g14
(dtRp1412
sg10
(S'\x07\xdb\x06\x10'
tRp1413
g12
(g13
g14
(dtRp1414
sg10
(S'\x07\xdb\t\x15'
tRp1415
g12
(g13
g14
(dtRp1416
sg10
(S'\x07\xdb\x07\x10'
tRp1417
g12
(g13
g14
(dtRp1418
sg10
(S'\x07\xdb\n\n'
tRp1419
g12
(g13
g14
(dtRp1420
sg10
(S'\x07\xdb\x0b\x19'
tRp1421
g12
(g13
g14
(dtRp1422
sg10
(S'\x07\xdb\x01\x0c'
tRp1423
g12
(g13
g14
(dtRp1424
sg10
(S'\x07\xdb\x02\x03'
tRp1425
g12
(g13
g14
(dtRp1426
sg10
(S'\x07\xdb\x04\x04'
tRp1427
g12
(g13
g14
(dtRp1428
sg10
(S'\x07\xdb\x08\x13'
tRp1429
g12
(g13
g14
(dtRp1430
sg10
(S'\x07\xdb\x05\x04'
tRp1431
g12
(g13
g14
(dtRp1432
sg10
(S'\x07\xdb\x06\x19'
tRp1433
g12
(g13
g14
(dtRp1434
sg10
(S'\x07\xdb\x07\x1f'
tRp1435
g12
(g13
g14
(dtRp1436
sg10
(S'\x07\xdb\n\x13'
tRp1437
g12
(g13
g14
(dtRp1438
sg10
(S'\x07\xdb\x01\x17'
tRp1439
g12
(g13
g14
(dtRp1440
sg10
(S'\x07\xdb\x02\x04'
tRp1441
g12
(g13
g14
(dtRp1442
sg10
(S'\x07\xdb\x04\x1d'
tRp1443
g12
(g13
g14
(dtRp1444
sg10
(S'\x07\xdb\x08\x18'
tRp1445
g12
(g13
g14
(dtRp1446
sg10
(S'\x07\xdb\x05\x1f'
tRp1447
g12
(g13
g14
(dtRp1448
sg10
(S'\x07\xdb\x0c\x13'
tRp1449
g12
(g13
g14
(dtRp1450
sg10
(S'\x07\xdb\n\x14'
tRp1451
g12
(g13
g14
(dtRp1452
sg10
(S'\x07\xdb\x03\x19'
tRp1453
g12
(g13
g14
(dtRp1454
sg10
(S'\x07\xdb\x01\x1e'
tRp1455
g12
(g13
g14
(dtRp1456
sg10
(S'\x07\xdb\x04\x12'
tRp1457
g12
(g13
g14
(dtRp1458
sg10
(S'\x07\xdb\x05\x16'
tRp1459
g12
(g13
g14
(dtRp1460
sg10
(S'\x07\xdb\x0c\x18'
tRp1461
g12
(g13
g14
(dtRp1462
sg10
(S'\x07\xdb\n\x1d'
tRp1463
g12
(g13
g14
(dtRp1464
sg10
(S'\x07\xdb\x03\x10'
tRp1465
g12
(g13
g14
(dtRp1466
sg10
(S'\x07\xdb\t\x0c'
tRp1467
g12
(g13
g14
(dtRp1468
sg10
(S'\x07\xdb\x05\x11'
tRp1469
g12
(g13
g14
(dtRp1470
sg10
(S'\x07\xdb\x0c\x01'
tRp1471
g12
(g13
g14
(dtRp1472
sg10
(S'\x07\xdb\x06\x02'
tRp1473
g12
(g13
g14
(dtRp1474
sg10
(S'\x07\xdb\x03\x17'
tRp1475
g12
(g13
g14
(dtRp1476
sg10
(S'\x07\xdb\t\x07'
tRp1477
g12
(g13
g14
(dtRp1478
sg10
(S'\x07\xdb\x07\x06'
tRp1479
g12
(g13
g14
(dtRp1480
sg10
(S'\x07\xdb\x0b\x07'
tRp1481
g12
(g13
g14
(dtRp1482
sg10
(S'\x07\xdb\x08\x01'
tRp1483
g12
(g13
g14
(dtRp1484
sg10
(S'\x07\xdb\x0c\x06'
tRp1485
g12
(g13
g14
(dtRp1486
sg10
(S'\x07\xdb\x06\x0b'
tRp1487
g12
(g13
g14
(dtRp1488
sg10
(S'\x07\xdb\x03\x0e'
tRp1489
g12
(g13
g14
(dtRp1490
sg10
(S'\x07\xdb\t\x1e'
tRp1491
g12
(g13
g14
(dtRp1492
sg10
(S'\x07\xdb\x07\r'
tRp1493
g12
(g13
g14
(dtRp1494
sg10
(S'\x07\xdb\x0b\x0e'
tRp1495
g12
(g13
g14
(dtRp1496
sg578
g12
(g13
g14
(dtRp1497
sg10
(S'\x07\xdb\x02\x16'
tRp1498
g12
(g13
g14
(dtRp1499
sg10
(S'\x07\xdb\x04\x0b'
tRp1500
g12
(g13
g14
(dtRp1501
sg10
(S'\x07\xdb\x08\x0e'
tRp1502
g12
(g13
g14
(dtRp1503
sg10
(S'\x07\xdb\x0c\x0f'
tRp1504
g12
(g13
g14
(dtRp1505
sg10
(S'\x07\xdb\x06\x14'
tRp1506
g12
(g13
g14
(dtRp1507
sg10
(S'\x07\xdb\x03\x05'
tRp1508
g12
(g13
g14
(dtRp1509
sg10
(S'\x07\xdb\t\x11'
tRp1510
g12
(g13
g14
(dtRp1511
sg10
(S'\x07\xdb\x07\x14'
tRp1512
g12
(g13
g14
(dtRp1513
sg10
(S'\x07\xdb\n\x06'
tRp1514
g12
(g13
g14
(dtRp1515
sg10
(S'\x07\xdb\x0b\x15'
tRp1516
g12
(g13
g14
(dtRp1517
sg10
(S'\x07\xdb\x01\x08'
tRp1518
g12
(g13
g14
(dtRp1519
sg10
(S'\x07\xdb\x02\x0f'
tRp1520
g12
(g13
g14
(dtRp1521
sg10
(S'\x07\xdb\x08\x17'
tRp1522
g12
(g13
g14
(dtRp1523
sg10
(S'\x07\xdb\x05\x08'
tRp1524
g12
(g13
g14
(dtRp1525
sg10
(S'\x07\xdb\x06\x1d'
tRp1526
g12
(g13
g14
(dtRp1527
sg10
(S'\x07\xdb\x07\x13'
tRp1528
g12
(g13
g14
(dtRp1529
sg10
(S'\x07\xdb\n\x0f'
tRp1530
g12
(g13
g14
(dtRp1531
sg10
(S'\x07\xdb\x0b\x1c'
tRp1532
g12
(g13
g14
(dtRp1533
sg10
(S'\x07\xdb\x01\x13'
tRp1534
g12
(g13
g14
(dtRp1535
sg10
(S'\x07\xdb\x04\x19'
tRp1536
g12
(g13
g14
(dtRp1537
sg10
(S'\x07\xdb\x08\x1c'
tRp1538
g12
(g13
g14
(dtRp1539
sg10
(S'\x07\xdb\x05\x03'
tRp1540
g12
(g13
g14
(dtRp1541
sg10
(S'\x07\xdb\x07\x1a'
tRp1542
g12
(g13
g14
(dtRp1543
sg10
(S'\x07\xdb\n\x10'
tRp1544
g12
(g13
g14
(dtRp1545
sg10
(S'\x07\xdb\x01\x1a'
tRp1546
g12
(g13
g14
(dtRp1547
sg10
(S'\x07\xdb\x04\x1e'
tRp1548
g12
(g13
g14
(dtRp1549
sg10
(S'\x07\xdb\x05\x1a'
tRp1550
g12
(g13
g14
(dtRp1551
sg10
(S'\x07\xdb\x0c\x14'
tRp1552
g12
(g13
g14
(dtRp1553
sg10
(S'\x07\xdb\n\x19'
tRp1554
g12
(g13
g14
(dtRp1555
sg10
(S'\x07\xdb\x03\x1c'
tRp1556
g12
(g13
g14
(dtRp1557
sg10
(S'\x07\xdb\t\x08'
tRp1558
g12
(g13
g14
(dtRp1559
sg10
(S'\x07\xdb\x01\x1d'
tRp1560
g12
(g13
g14
(dtRp1561
sg10
(S'\x07\xdb\x04\x17'
tRp1562
g12
(g13
g14
(dtRp1563
sg10
(S'\x07\xdb\x05\x15'
tRp1564
g12
(g13
g14
(dtRp1565
sg10
(S'\x07\xdb\x0c\x1d'
tRp1566
g12
(g13
g14
(dtRp1567
sg10
(S'\x07\xdb\x06\x06'
tRp1568
g12
(g13
g14
(dtRp1569
sg10
(S'\x07\xdb\x03\x13'
tRp1570
g12
(g13
g14
(dtRp1571
sg10
(S'\x07\xdb\t\x03'
tRp1572
g12
(g13
g14
(dtRp1573
sg10
(S'\x07\xdb\x0b\x03'
tRp1574
g12
(g13
g14
(dtRp1575
sg10
(S'\x07\xdb\x02\x19'
tRp1576
g12
(g13
g14
(dtRp1577
sg10
(S'\x07\xdb\x08\x05'
tRp1578
g12
(g13
g14
(dtRp1579
sg10
(S'\x07\xdb\x0c\x02'
tRp1580
g12
(g13
g14
(dtRp1581
sg10
(S'\x07\xdb\x06\x0f'
tRp1582
g12
(g13
g14
(dtRp1583
sg10
(S'\x07\xdb\x03\n'
tRp1584
g12
(g13
g14
(dtRp1585
sg10
(S'\x07\xdb\t\x1a'
tRp1586
g12
(g13
g14
(dtRp1587
sg10
(S'\x07\xdb\x07\x01'
tRp1588
g12
(g13
g14
(dtRp1589
sg10
(S'\x07\xdb\x0b\n'
tRp1590
g12
(g13
g14
(dtRp1591
sg10
(S'\x07\xdb\x02\x12'
tRp1592
g12
(g13
g14
(dtRp1593
sg10
(S'\x07\xdb\x08\x02'
tRp1594
g12
(g13
g14
(dtRp1595
sg10
(S'\x07\xdb\x0c\x0b'
tRp1596
g12
(g13
g14
(dtRp1597
sg10
(S'\x07\xdb\x06\x08'
tRp1598
g12
(g13
g14
(dtRp1599
sg10
(S'\x07\xdb\x03\x01'
tRp1600
g12
(g13
g14
(dtRp1601
sg10
(S'\x07\xdb\t\x1d'
tRp1602
g12
(g13
g14
(dtRp1603
sg10
(S'\x07\xdb\x07\x08'
tRp1604
g12
(g13
g14
(dtRp1605
sg10
(S'\x07\xdb\n\x02'
tRp1606
g12
(g13
g14
(dtRp1607
sg10
(S'\x07\xdb\x0b\x11'
tRp1608
g12
(g13
g14
(dtRp1609
sg10
(S'\x07\xdb\x01\x04'
tRp1610
g12
(g13
g14
(dtRp1611
sg10
(S'\x07\xdb\x02\x0b'
tRp1612
g12
(g13
g14
(dtRp1613
sg10
(S'\x07\xdb\x04\x0c'
tRp1614
g12
(g13
g14
(dtRp1615
sg10
(S'\x07\xdb\x08\x0b'
tRp1616
g12
(g13
g14
(dtRp1617
sg10
(S'\x07\xdb\x05\x0c'
tRp1618
g12
(g13
g14
(dtRp1619
sg10
(S'\x07\xdb\x06\x11'
tRp1620
g12
(g13
g14
(dtRp1621
sg10
(S'\x07\xdb\t\x14'
tRp1622
g12
(g13
g14
(dtRp1623
sg10
(S'\x07\xdb\x07\x17'
tRp1624
g12
(g13
g14
(dtRp1625
sg10
(S'\x07\xdb\n\x0b'
tRp1626
g12
(g13
g14
(dtRp1627
sg10
(S'\x07\xdb\x0b\x18'
tRp1628
g12
(g13
g14
(dtRp1629
sg10
(S'\x07\xdb\x01\x0f'
tRp1630
g12
(g13
g14
(dtRp1631
sg10
(S'\x07\xdb\x02\x0c'
tRp1632
g12
(g13
g14
(dtRp1633
sg10
(S'\x07\xdb\x04\x05'
tRp1634
g12
(g13
g14
(dtRp1635
sg10
(S'\x07\xdb\x08\x10'
tRp1636
g12
(g13
g14
(dtRp1637
sg10
(S'\x07\xdb\x05\x07'
tRp1638
g12
(g13
g14
(dtRp1639
sg10
(S'\x07\xdb\x06\x1a'
tRp1640
g12
(g13
g14
(dtRp1641
sg10
(S'\x07\xdb\x07\x1e'
tRp1642
g12
(g13
g14
(dtRp1643
sg10
(S'\x07\xdb\n\x0c'
tRp1644
g12
(g13
g14
(dtRp1645
sg10
(S'\x07\xdb\x01\x16'
tRp1646
g12
(g13
g14
(dtRp1647
sg10
(S'\x07\xdb\x02\x05'
tRp1648
g12
(g13
g14
(dtRp1649
sg10
(S'\x07\xdb\x04\x1a'
tRp1650
g12
(g13
g14
(dtRp1651
sg10
(S'\x07\xdb\x08\x19'
tRp1652
g12
(g13
g14
(dtRp1653
sg10
(S'\x07\xdb\x05\x1e'
tRp1654
g12
(g13
g14
(dtRp1655
sg10
(S'\x07\xdb\x0c\x10'
tRp1656
g12
(g13
g14
(dtRp1657
sg10
(S'\x07\xdb\n\x15'
tRp1658
g12
(g13
g14
(dtRp1659
sg10
(S'\x07\xdb\x03\x18'
tRp1660
g12
(g13
g14
(dtRp1661
sg10
(S'\x07\xdb\x01\x19'
tRp1662
g12
(g13
g14
(dtRp1663
sg10
(S'\x07\xdb\x04\x13'
tRp1664
g12
(g13
g14
(dtRp1665
sg10
(S'\x07\xdb\x05\x19'
tRp1666
g12
(g13
g14
(dtRp1667
sg10
(S'\x07\xdb\x0c\x19'
tRp1668
g12
(g13
g14
(dtRp1669
sg10
(S'\x07\xdb\n\x1e'
tRp1670
g12
(g13
g14
(dtRp1671
sg10
(S'\x07\xdb\x03\x1f'
tRp1672
g12
(g13
g14
(dtRp1673
sg10
(S'\x07\xdb\t\x0f'
tRp1674
g12
(g13
g14
(dtRp1675
sg10
(S'\x07\xdb\x05\x10'
tRp1676
g12
(g13
g14
(dtRp1677
sg10
(S'\x07\xdb\x0c\x1e'
tRp1678
g12
(g13
g14
(dtRp1679
sg10
(S'\x07\xdb\x06\x03'
tRp1680
g12
(g13
g14
(dtRp1681
sg10
(S'\x07\xdb\x03\x16'
tRp1682
g12
(g13
g14
(dtRp1683
sg10
(S'\x07\xdb\t\x06'
tRp1684
g12
(g13
g14
(dtRp1685
sg10
(S'\x07\xdb\x07\x05'
tRp1686
g12
(g13
g14
(dtRp1687
sg10
(S'\x07\xdb\x0b\x06'
tRp1688
g12
(g13
g14
(dtRp1689
sg10
(S'\x07\xdb\x08\x06'
tRp1690
g12
(g13
g14
(dtRp1691
sg10
(S'\x07\xdb\x0c\x07'
tRp1692
g12
(g13
g14
(dtRp1693
sg10
(S'\x07\xdb\x06\x0c'
tRp1694
g12
(g13
g14
(dtRp1695
sg10
(S'\x07\xdb\x03\r'
tRp1696
g12
(g13
g14
(dtRp1697
sg10
(S'\x07\xdb\t\x19'
tRp1698
g12
(g13
g14
(dtRp1699
sg10
(S'\x07\xdb\x07\x0c'
tRp1700
g12
(g13
g14
(dtRp1701
sg10
(S'\x07\xdb\x0b\r'
tRp1702
g12
(g13
g14
(dtRp1703
sg10
(S'\x07\xdb\x02\x17'
tRp1704
g12
(g13
g14
(dtRp1705
sg10
(S'\x07\xdb\x04\x08'
tRp1706
g12
(g13
g14
(dtRp1707
sg10
(S'\x07\xdb\x08\x0f'
tRp1708
g12
(g13
g14
(dtRp1709
sg10
(S'\x07\xdb\x0c\x0c'
tRp1710
g12
(g13
g14
(dtRp1711
sg10
(S'\x07\xdb\x06\x15'
tRp1712
g12
(g13
g14
(dtRp1713
sg10
(S'\x07\xdb\x03\x04'
tRp1714
g12
(g13
g14
(dtRp1715
sg10
(S'\x07\xdb\t\x10'
tRp1716
g12
(g13
g14
(dtRp1717
sg10
(S'\x07\xdb\x07\x0b'
tRp1718
g12
(g13
g14
(dtRp1719
sg10
(S'\x07\xdb\n\x07'
tRp1720
g12
(g13
g14
(dtRp1721
sg10
(S'\x07\xdb\x0b\x14'
tRp1722
g12
(g13
g14
(dtRp1723
sg10
(S'\x07\xdb\x01\x0b'
tRp1724
g12
(g13
g14
(dtRp1725
sg10
(S'\x07\xdb\x02\x08'
tRp1726
g12
(g13
g14
(dtRp1727
sg10
(S'\x07\xdb\x04\x01'
tRp1728
g12
(g13
g14
(dtRp1729
sg10
(S'\x07\xdb\x08\x14'
tRp1730
g12
(g13
g14
(dtRp1731
sg10
(S'\x07\xdb\x05\x0b'
tRp1732
g12
(g13
g14
(dtRp1733
sg10
(S'\x07\xdb\x06\x1e'
tRp1734
g12
(g13
g14
(dtRp1735
sg10
(S'\x07\xdb\x07\x12'
tRp1736
g12
(g13
g14
(dtRp1737
sg10
(S'\x07\xdb\n\x08'
tRp1738
g12
(g13
g14
(dtRp1739
sg10
(S'\x07\xdb\x0b\x1b'
tRp1740
g12
(g13
g14
(dtRp1741
sg10
(S'\x07\xdb\x01\x12'
tRp1742
g12
(g13
g14
(dtRp1743
sg10
(S'\x07\xdb\x02\x01'
tRp1744
g12
(g13
g14
(dtRp1745
sg10
(S'\x07\xdb\x04\x06'
tRp1746
g12
(g13
g14
(dtRp1747
sg10
(S'\x07\xdb\x08\x1d'
tRp1748
g12
(g13
g14
(dtRp1749
sg10
(S'\x07\xdb\x05\x02'
tRp1750
g12
(g13
g14
(dtRp1751
sg10
(S'\x07\xdb\x07\x19'
tRp1752
g12
(g13
g14
(dtRp1753
sg10
(S'\x07\xdb\n\x11'
tRp1754
g12
(g13
g14
(dtRp1755
sg10
(S'\x07\xdb\x01\x15'
tRp1756
g12
(g13
g14
(dtRp1757
sg10
(S'\x07\xdb\x08\x1a'
tRp1758
g12
(g13
g14
(dtRp1759
sg10
(S'\x07\xdb\x05\x1d'
tRp1760
g12
(g13
g14
(dtRp1761
sg10
(S'\x07\xdb\x0c\x15'
tRp1762
g12
(g13
g14
(dtRp1763
sg10
(S'\x07\xdb\n\x1a'
tRp1764
g12
(g13
g14
(dtRp1765
sg10
(S'\x07\xdb\x03\x1b'
tRp1766
g12
(g13
g14
(dtRp1767
sg10
(S'\x07\xdb\t\x0b'
tRp1768
g12
(g13
g14
(dtRp1769
sg10
(S'\x07\xdb\x01\x1c'
tRp1770
g12
(g13
g14
(dtRp1771
sg10
(S'\x07\xdb\x04\x14'
tRp1772
g12
(g13
g14
(dtRp1773
sg10
(S'\x07\xdb\x05\x14'
tRp1774
g12
(g13
g14
(dtRp1775
sg10
(S'\x07\xdb\x0c\x1a'
tRp1776
g12
(g13
g14
(dtRp1777
sg10
(S'\x07\xdb\x06\x07'
tRp1778
g12
(g13
g14
(dtRp1779
sg10
(S'\x07\xdb\x03\x12'
tRp1780
g12
(g13
g14
(dtRp1781
sg10
(S'\x07\xdb\t\x02'
tRp1782
g12
(g13
g14
(dtRp1783
sg10
(S'\x07\xdb\x0b\x02'
tRp1784
g12
(g13
g14
(dtRp1785
sg10
(S'\x07\xdb\x02\x1a'
tRp1786
g12
(g13
g14
(dtRp1787
sg10
(S'\x07\xdb\x0c\x03'
tRp1788
g12
(g13
g14
(dtRp1789
sg10
(S'\x07\xdb\x03\t'
tRp1790
g12
(g13
g14
(dtRp1791
sg10
(S'\x07\xdb\t\x05'
tRp1792
g12
(g13
g14
(dtRp1793
sg10
(S'\x07\xdb\x0b\t'
tRp1794
g12
(g13
g14
(dtRp1795
sg10
(S'\x07\xdb\x02\x13'
tRp1796
g12
(g13
g14
(dtRp1797
sg10
(S'\x07\xdb\x08\x03'
tRp1798
g12
(g13
g14
(dtRp1799
sg10
(S'\x07\xdb\x0c\x08'
tRp1800
g12
(g13
g14
(dtRp1801
sg10
(S'\x07\xdb\x06\t'
tRp1802
g12
(g13
g14
(dtRp1803
sg10
(S'\x07\xdb\t\x1c'
tRp1804
g12
(g13
g14
(dtRp1805
sg10
(S'\x07\xdb\x07\x0f'
tRp1806
g12
(g13
g14
(dtRp1807
sg10
(S'\x07\xdb\n\x03'
tRp1808
g12
(g13
g14
(dtRp1809
sg10
(S'\x07\xdb\x0b\x10'
tRp1810
g12
(g13
g14
(dtRp1811
sg10
(S'\x07\xdb\x01\x07'
tRp1812
g12
(g13
g14
(dtRp1813
sg10
(S'\x07\xdb\x02\x14'
tRp1814
g12
(g13
g14
(dtRp1815
sg10
(S'\x07\xdb\x04\r'
tRp1816
g12
(g13
g14
(dtRp1817
sg10
(S'\x07\xdb\x08\x08'
tRp1818
g12
(g13
g14
(dtRp1819
sg10
(S'\x07\xdb\x05\x0f'
tRp1820
g12
(g13
g14
(dtRp1821
sg10
(S'\x07\xdb\x06\x12'
tRp1822
g12
(g13
g14
(dtRp1823
sg10
(S'\x07\xdb\x03\x07'
tRp1824
g12
(g13
g14
(dtRp1825
sg10
(S'\x07\xdb\t\x17'
tRp1826
g12
(g13
g14
(dtRp1827
sg10
(S'\x07\xdb\x07\x16'
tRp1828
g12
(g13
g14
(dtRp1829
sg10
(S'\x07\xdb\n\x04'
tRp1830
g12
(g13
g14
(dtRp1831
sg10
(S'\x07\xdb\x0b\x17'
tRp1832
g12
(g13
g14
(dtRp1833
sg10
(S'\x07\xdb\x01\x0e'
tRp1834
g12
(g13
g14
(dtRp1835
sg10
(S'\x07\xdb\x02\r'
tRp1836
g12
(g13
g14
(dtRp1837
sg10
(S'\x07\xdb\x04\x02'
tRp1838
g12
(g13
g14
(dtRp1839
sg10
(S'\x07\xdb\x08\x11'
tRp1840
g12
(g13
g14
(dtRp1841
sg10
(S'\x07\xdb\x05\x06'
tRp1842
g12
(g13
g14
(dtRp1843
sg10
(S'\x07\xdb\x06\x1b'
tRp1844
g12
(g13
g14
(dtRp1845
sg10
(S'\x07\xdb\x07\x1d'
tRp1846
g12
(g13
g14
(dtRp1847
sg10
(S'\x07\xdb\n\r'
tRp1848
g12
(g13
g14
(dtRp1849
sg10
(S'\x07\xdb\x0b\x1e'
tRp1850
g12
(g13
g14
(dtRp1851
sg10
(S'\x07\xdb\x01\x11'
tRp1852
g12
(g13
g14
(dtRp1853
sg10
(S'\x07\xdb\x02\x06'
tRp1854
g12
(g13
g14
(dtRp1855
sg10
(S'\x07\xdb\x04\x1b'
tRp1856
g12
(g13
g14
(dtRp1857
sg10
(S'\x07\xdb\x08\x1e'
tRp1858
g12
(g13
g14
(dtRp1859
sg10
(S'\x07\xdb\x05\x01'
tRp1860
g12
(g13
g14
(dtRp1861
sg10
(S'\x07\xdb\x0c\x11'
tRp1862
g12
(g13
g14
(dtRp1863
sg10
(S'\x07\xdb\n\x16'
tRp1864
g12
(g13
g14
(dtRp1865
sg10
(S'\x07\xdb\x01\x18'
tRp1866
g12
(g13
g14
(dtRp1867
sg10
(S'\x07\xdb\x04\x10'
tRp1868
g12
(g13
g14
(dtRp1869
sg10
(S'\x07\xdb\x05\x18'
tRp1870
g12
(g13
g14
(dtRp1871
sg10
(S'\x07\xdb\x0c\x16'
tRp1872
g12
(g13
g14
(dtRp1873
sg10
(S'\x07\xdb\n\x1f'
tRp1874
g12
(g13
g14
(dtRp1875
sg10
(S'\x07\xdb\x03\x1e'
tRp1876
g12
(g13
g14
(dtRp1877
sg10
(S'\x07\xdb\t\x0e'
tRp1878
g12
(g13
g14
(dtRp1879
sg10
(S'\x07\xdb\x05\x13'
tRp1880
g12
(g13
g14
(dtRp1881
sg10
(S'\x07\xdb\x0c\x1f'
tRp1882
g12
(g13
g14
(dtRp1883
sg10
(S'\x07\xdb\x06\x04'
tRp1884
g12
(g13
g14
(dtRp1885
sg10
(S'\x07\xdb\x03\x15'
tRp1886
g12
(g13
g14
(dtRp1887
sg10
(S'\x07\xdb\t\x01'
tRp1888
g12
(g13
g14
(dtRp1889
sg10
(S'\x07\xdb\x07\x04'
tRp1890
g12
(g13
g14
(dtRp1891
ssbsVtwtr
p1892
(iTimeSeries
TimeSeries
p1893
(dp1894
g8
(dp1895
g10
(S'\x07\xdb\x0b\x05'
tRp1896
g12
(g13
g14
(dtRp1897
sg10
(S'\x07\xdb\x08\x07'
tRp1898
g12
(g13
g14
(dtRp1899
sg10
(S'\x07\xdb\x0c\x04'
tRp1900
g12
(g13
g14
(dtRp1901
sg10
(S'\x07\xdb\x06\r'
tRp1902
g12
(g13
g14
(dtRp1903
sg10
(S'\x07\xdb\x03\x0c'
tRp1904
g12
(g13
g14
(dtRp1905
sg10
(S'\x07\xdb\t\x18'
tRp1906
g12
(g13
g14
(dtRp1907
sg10
(S'\x07\xdb\x07\x03'
tRp1908
g12
(g13
g14
(dtRp1909
sg10
(S'\x07\xdb\x0b\x0c'
tRp1910
g12
(g13
g14
(dtRp1911
sg10
(S'\x07\xdb\x01\x03'
tRp1912
g12
(g13
g14
(dtRp1913
sg10
(S'\x07\xdb\x02\x10'
tRp1914
g12
(g13
g14
(dtRp1915
sg10
(S'\x07\xdb\x04\t'
tRp1916
g12
(g13
g14
(dtRp1917
sg10
(S'\x07\xdb\x08\x0c'
tRp1918
g12
(g13
g14
(dtRp1919
sg10
(S'\x07\xdb\x0c\r'
tRp1920
g12
(g13
g14
(dtRp1921
sg10
(S'\x07\xdb\x06\x16'
tRp1922
g12
(g13
g14
(dtRp1923
sg10
(S'\x07\xdb\x03\x03'
tRp1924
g12
(g13
g14
(dtRp1925
sg10
(S'\x07\xdb\t\x13'
tRp1926
g12
(g13
g14
(dtRp1927
sg10
(S'\x07\xdb\x07\n'
tRp1928
g12
(g13
g14
(dtRp1929
sg10
(S'\x07\xdb\x0b\x13'
tRp1930
g12
(g13
g14
(dtRp1931
sg10
(S'\x07\xdb\x01\n'
tRp1932
g12
(g13
g14
(dtRp1933
sg10
(S'\x07\xdb\x02\t'
tRp1934
g12
(g13
g14
(dtRp1935
sg10
(S'\x07\xdb\x04\x0e'
tRp1936
g12
(g13
g14
(dtRp1937
sg10
(S'\x07\xdb\x08\x15'
tRp1938
g12
(g13
g14
(dtRp1939
sg10
(S'\x07\xdb\x05\n'
tRp1940
g12
(g13
g14
(dtRp1941
sg10
(S'\x07\xdb\x07\x11'
tRp1942
g12
(g13
g14
(dtRp1943
sg10
(S'\x07\xdb\n\t'
tRp1944
g12
(g13
g14
(dtRp1945
sg10
(S'\x07\xdb\x0b\x1a'
tRp1946
g12
(g13
g14
(dtRp1947
sg10
(S'\x07\xdb\x01\r'
tRp1948
g12
(g13
g14
(dtRp1949
sg10
(S'\x07\xdb\x02\x02'
tRp1950
g12
(g13
g14
(dtRp1951
sg10
(S'\x07\xdb\x04\x07'
tRp1952
g12
(g13
g14
(dtRp1953
sg10
(S'\x07\xdb\x08\x12'
tRp1954
g12
(g13
g14
(dtRp1955
sg10
(S'\x07\xdb\x05\x05'
tRp1956
g12
(g13
g14
(dtRp1957
sg10
(S'\x07\xdb\x06\x18'
tRp1958
g12
(g13
g14
(dtRp1959
sg10
(S'\x07\xdb\x07\x18'
tRp1960
g12
(g13
g14
(dtRp1961
sg10
(S'\x07\xdb\n\x12'
tRp1962
g12
(g13
g14
(dtRp1963
sg10
(S'\x07\xdb\x01\x14'
tRp1964
g12
(g13
g14
(dtRp1965
sg10
(S'\x07\xdb\x04\x1c'
tRp1966
g12
(g13
g14
(dtRp1967
sg10
(S'\x07\xdb\x08\x1b'
tRp1968
g12
(g13
g14
(dtRp1969
sg10
(S'\x07\xdb\x05\x1c'
tRp1970
g12
(g13
g14
(dtRp1971
sg10
(S'\x07\xdb\x0c\x12'
tRp1972
g12
(g13
g14
(dtRp1973
sg10
(S'\x07\xdb\n\x1b'
tRp1974
g12
(g13
g14
(dtRp1975
sg10
(S'\x07\xdb\x03\x1a'
tRp1976
g12
(g13
g14
(dtRp1977
sg10
(S'\x07\xdb\t\n'
tRp1978
g12
(g13
g14
(dtRp1979
sg10
(S'\x07\xdb\x01\x1f'
tRp1980
g12
(g13
g14
(dtRp1981
sg10
(S'\x07\xdb\x04\x15'
tRp1982
g12
(g13
g14
(dtRp1983
sg10
(S'\x07\xdb\x05\x17'
tRp1984
g12
(g13
g14
(dtRp1985
sg10
(S'\x07\xdb\x0c\x1b'
tRp1986
g12
(g13
g14
(dtRp1987
sg10
(S'\x07\xdb\n\x1c'
tRp1988
g12
(g13
g14
(dtRp1989
sg10
(S'\x07\xdb\x03\x11'
tRp1990
g12
(g13
g14
(dtRp1991
sg10
(S'\x07\xdb\t\r'
tRp1992
g12
(g13
g14
(dtRp1993
sg10
(S'\x07\xdb\x0b\x01'
tRp1994
g12
(g13
g14
(dtRp1995
sg10
(S'\x07\xdb\x02\x1b'
tRp1996
g12
(g13
g14
(dtRp1997
sg10
(S'\x07\xdb\x06\x01'
tRp1998
g12
(g13
g14
(dtRp1999
sg10
(S'\x07\xdb\x03\x08'
tRp2000
g12
(g13
g14
(dtRp2001
sg10
(S'\x07\xdb\t\x04'
tRp2002
g12
(g13
g14
(dtRp2003
sg10
(S'\x07\xdb\x07\x07'
tRp2004
g12
(g13
g14
(dtRp2005
sg10
(S'\x07\xdb\x0b\x08'
tRp2006
g12
(g13
g14
(dtRp2007
sg10
(S'\x07\xdb\x02\x1c'
tRp2008
g12
(g13
g14
(dtRp2009
sg10
(S'\x07\xdb\x0c\t'
tRp2010
g12
(g13
g14
(dtRp2011
sg10
(S'\x07\xdb\x06\n'
tRp2012
g12
(g13
g14
(dtRp2013
sg10
(S'\x07\xdb\x03\x0f'
tRp2014
g12
(g13
g14
(dtRp2015
sg10
(S'\x07\xdb\x07\x0e'
tRp2016
g12
(g13
g14
(dtRp2017
sg10
(S'\x07\xdb\x0b\x0f'
tRp2018
g12
(g13
g14
(dtRp2019
sg10
(S'\x07\xdb\x01\x06'
tRp2020
g12
(g13
g14
(dtRp2021
sg10
(S'\x07\xdb\x02\x15'
tRp2022
g12
(g13
g14
(dtRp2023
sg10
(S'\x07\xdb\x04\n'
tRp2024
g12
(g13
g14
(dtRp2025
sg10
(S'\x07\xdb\x08\t'
tRp2026
g12
(g13
g14
(dtRp2027
sg10
(S'\x07\xdb\x05\x0e'
tRp2028
g12
(g13
g14
(dtRp2029
sg10
(S'\x07\xdb\x0c\x0e'
tRp2030
g12
(g13
g14
(dtRp2031
sg10
(S'\x07\xdb\x06\x13'
tRp2032
g12
(g13
g14
(dtRp2033
sg10
(S'\x07\xdb\x03\x06'
tRp2034
g12
(g13
g14
(dtRp2035
sg10
(S'\x07\xdb\t\x16'
tRp2036
g12
(g13
g14
(dtRp2037
sg10
(S'\x07\xdb\x07\x15'
tRp2038
g12
(g13
g14
(dtRp2039
sg10
(S'\x07\xdb\n\x05'
tRp2040
g12
(g13
g14
(dtRp2041
sg10
(S'\x07\xdb\x0b\x16'
tRp2042
g12
(g13
g14
(dtRp2043
sg10
(S'\x07\xdb\x01\t'
tRp2044
g12
(g13
g14
(dp2045
Vperson
p2046
I1
sVsecond
p2047
I1
sVones
p2048
I1
sV's
p2049
I1
sVplural
p2050
I1
stRp2051
sg10
(S'\x07\xdb\x02\x0e'
tRp2052
g12
(g13
g14
(dtRp2053
sg10
(S'\x07\xdb\x04\x03'
tRp2054
g12
(g13
g14
(dtRp2055
sg10
(S'\x07\xdb\x08\x16'
tRp2056
g12
(g13
g14
(dtRp2057
sg10
(S'\x07\xdb\x05\t'
tRp2058
g12
(g13
g14
(dtRp2059
sg10
(S'\x07\xdb\x06\x1c'
tRp2060
g12
(g13
g14
(dtRp2061
sg10
(S'\x07\xdb\x07\x1c'
tRp2062
g12
(g13
g14
(dtRp2063
sg10
(S'\x07\xdb\n\x0e'
tRp2064
g12
(g13
g14
(dtRp2065
sg10
(S'\x07\xdb\x0b\x1d'
tRp2066
g12
(g13
g14
(dtRp2067
sg10
(S'\x07\xdb\x01\x10'
tRp2068
g12
(g13
g14
(dtRp2069
sg10
(S'\x07\xdb\x02\x07'
tRp2070
g12
(g13
g14
(dtRp2071
sg10
(S'\x07\xdb\x04\x18'
tRp2072
g12
(g13
g14
(dtRp2073
sg10
(S'\x07\xdb\x08\x1f'
tRp2074
g12
(g13
g14
(dtRp2075
sg10
(S'\x07\xdb\x07\x1b'
tRp2076
g12
(g13
g14
(dtRp2077
sg10
(S'\x07\xdb\n\x17'
tRp2078
g12
(g13
g14
(dtRp2079
sg10
(S'\x07\xdb\x01\x1b'
tRp2080
g12
(g13
g14
(dtRp2081
sg10
(S'\x07\xdb\x04\x11'
tRp2082
g12
(g13
g14
(dtRp2083
sg10
(S'\x07\xdb\x05\x1b'
tRp2084
g12
(g13
g14
(dtRp2085
sg10
(S'\x07\xdb\x0c\x17'
tRp2086
g12
(g13
g14
(dtRp2087
sg10
(S'\x07\xdb\n\x18'
tRp2088
g12
(g13
g14
(dtRp2089
sg10
(S'\x07\xdb\x03\x1d'
tRp2090
g12
(g13
g14
(dtRp2091
sg10
(S'\x07\xdb\t\t'
tRp2092
g12
(g13
g14
(dtRp2093
sg10
(S'\x07\xdb\x04\x16'
tRp2094
g12
(g13
g14
(dtRp2095
sg10
(S'\x07\xdb\x05\x12'
tRp2096
g12
(g13
g14
(dtRp2097
sg10
(S'\x07\xdb\x0c\x1c'
tRp2098
g12
(g13
g14
(dtRp2099
sg10
(S'\x07\xdb\x06\x05'
tRp2100
g12
(g13
g14
(dtRp2101
sg10
(S'\x07\xdb\x03\x14'
tRp2102
g12
(g13
g14
(dtRp2103
sg10
(S'\x07\xdb\x0b\x04'
tRp2104
g12
(g13
g14
(dtRp2105
sg10
(S'\x07\xdb\x02\x18'
tRp2106
g12
(g13
g14
(dtRp2107
sg10
(S'\x07\xdb\x08\x04'
tRp2108
g12
(g13
g14
(dtRp2109
sg10
(S'\x07\xdb\x0c\x05'
tRp2110
g12
(g13
g14
(dtRp2111
sg10
(S'\x07\xdb\x06\x0e'
tRp2112
g12
(g13
g14
(dtRp2113
sg10
(S'\x07\xdb\x03\x0b'
tRp2114
g12
(g13
g14
(dtRp2115
sg10
(S'\x07\xdb\t\x1b'
tRp2116
g12
(g13
g14
(dtRp2117
sg10
(S'\x07\xdb\x07\x02'
tRp2118
g12
(g13
g14
(dtRp2119
sg10
(S'\x07\xdb\x0b\x0b'
tRp2120
g12
(g13
g14
(dtRp2121
sg10
(S'\x07\xdb\x01\x02'
tRp2122
g12
(g13
g14
(dtRp2123
sg10
(S'\x07\xdb\x02\x11'
tRp2124
g12
(g13
g14
(dtRp2125
sg10
(S'\x07\xdb\x08\r'
tRp2126
g12
(g13
g14
(dtRp2127
sg10
(S'\x07\xdb\x0c\n'
tRp2128
g12
(g13
g14
(dtRp2129
sg10
(S'\x07\xdb\x06\x17'
tRp2130
g12
(g13
g14
(dtRp2131
sg10
(S'\x07\xdb\x03\x02'
tRp2132
g12
(g13
g14
(dtRp2133
sg10
(S'\x07\xdb\t\x12'
tRp2134
g12
(g13
g14
(dtRp2135
sg10
(S'\x07\xdb\x07\t'
tRp2136
g12
(g13
g14
(dtRp2137
sg10
(S'\x07\xdb\n\x01'
tRp2138
g12
(g13
g14
(dtRp2139
sg10
(S'\x07\xdb\x0b\x12'
tRp2140
g12
(g13
g14
(dtRp2141
sg10
(S'\x07\xdb\x01\x05'
tRp2142
g12
(g13
g14
(dtRp2143
sg10
(S'\x07\xdb\x02\n'
tRp2144
g12
(g13
g14
(dtRp2145
sg10
(S'\x07\xdb\x04\x0f'
tRp2146
g12
(g13
g14
(dtRp2147
sg10
(S'\x07\xdb\x08\n'
tRp2148
g12
(g13
g14
(dtRp2149
sg10
(S'\x07\xdb\x05\r'
tRp2150
g12
(g13
g14
(dtRp2151
sg10
(S'\x07\xdb\x06\x10'
tRp2152
g12
(g13
g14
(dtRp2153
sg10
(S'\x07\xdb\t\x15'
tRp2154
g12
(g13
g14
(dtRp2155
sg10
(S'\x07\xdb\x07\x10'
tRp2156
g12
(g13
g14
(dtRp2157
sg10
(S'\x07\xdb\n\n'
tRp2158
g12
(g13
g14
(dtRp2159
sg10
(S'\x07\xdb\x0b\x19'
tRp2160
g12
(g13
g14
(dtRp2161
sg10
(S'\x07\xdb\x01\x0c'
tRp2162
g12
(g13
g14
(dtRp2163
sg10
(S'\x07\xdb\x02\x03'
tRp2164
g12
(g13
g14
(dtRp2165
sg10
(S'\x07\xdb\x04\x04'
tRp2166
g12
(g13
g14
(dtRp2167
sg10
(S'\x07\xdb\x08\x13'
tRp2168
g12
(g13
g14
(dtRp2169
sg10
(S'\x07\xdb\x05\x04'
tRp2170
g12
(g13
g14
(dtRp2171
sg10
(S'\x07\xdb\x06\x19'
tRp2172
g12
(g13
g14
(dtRp2173
sg10
(S'\x07\xdb\x07\x1f'
tRp2174
g12
(g13
g14
(dtRp2175
sg10
(S'\x07\xdb\n\x13'
tRp2176
g12
(g13
g14
(dtRp2177
sg10
(S'\x07\xdb\x01\x17'
tRp2178
g12
(g13
g14
(dtRp2179
sg10
(S'\x07\xdb\x02\x04'
tRp2180
g12
(g13
g14
(dtRp2181
sg10
(S'\x07\xdb\x04\x1d'
tRp2182
g12
(g13
g14
(dtRp2183
sg10
(S'\x07\xdb\x08\x18'
tRp2184
g12
(g13
g14
(dtRp2185
sg10
(S'\x07\xdb\x05\x1f'
tRp2186
g12
(g13
g14
(dtRp2187
sg10
(S'\x07\xdb\x0c\x13'
tRp2188
g12
(g13
g14
(dtRp2189
sg10
(S'\x07\xdb\n\x14'
tRp2190
g12
(g13
g14
(dtRp2191
sg10
(S'\x07\xdb\x03\x19'
tRp2192
g12
(g13
g14
(dtRp2193
sg10
(S'\x07\xdb\x01\x1e'
tRp2194
g12
(g13
g14
(dtRp2195
sg10
(S'\x07\xdb\x04\x12'
tRp2196
g12
(g13
g14
(dtRp2197
sg10
(S'\x07\xdb\x05\x16'
tRp2198
g12
(g13
g14
(dtRp2199
sg10
(S'\x07\xdb\x0c\x18'
tRp2200
g12
(g13
g14
(dtRp2201
sg10
(S'\x07\xdb\n\x1d'
tRp2202
g12
(g13
g14
(dtRp2203
sg10
(S'\x07\xdb\x03\x10'
tRp2204
g12
(g13
g14
(dp2205
Vlimited
p2206
I1
sVshot
p2207
I1
sVextra
p2208
I1
sVmoney
p2209
I3
sVone
p2210
I1
sVsalaries
p2211
I1
sVsays
p2212
I1
sVstartups
p2213
I1
sVfind
p2214
I1
sVwhose
p2215
I1
sVnecessarily
p2216
I1
sVbased
p2217
I1
sVwould
p2218
I2
sVarea
p2219
I1
sVexplain
p2220
I1
sVtwo
p2221
I1
sVspecifically
p2222
I1
sVactually
p2223
I2
sVbetter
p2224
I1
sVgrowth
p2225
I1
sVtreatment
p2226
I1
sVrich
p2227
I1
sVexempt
p2228
I1
sVhref=
p2229
I1
sVcombined
p2230
I1
sV``
p2231
I1
sVhit
p2232
I1
sVgains
p2233
I1
sVvaluations
p2234
I1
sVmeans
p2235
I1
sVcompany
p2236
I2
sVanticipated
p2237
I1
sVappreciation
p2238
I1
sVknow
p2239
I1
sVzynga
p2240
I2
sV/a
p2241
I1
sVhopes
p2242
I1
sVcases
p2243
I1
sVdifference
p2244
I1
sVvaluation
p2245
I2
sVcase
p2246
I1
sV''
p2247
I5
sVlike
p2248
I1
sVrel=
p2249
I1
sVbill
p2250
I1
sVcompanies
p2251
I3
sVbay
p2252
I1
sVn't
p2253
I3
sVp
I4
sVfuture
p2254
I1
sVapplies
p2255
I1
sVtaxed
p2256
I3
sVproblem
p2257
I3
sVbills
p2258
I1
sV//news.ycombinator.com/item
p2259
I2
sVemployees
p2260
I3
sVenforced
p2261
I2
sVcity.
p2262
I1
sVinvestors
p2263
I1
sVtwitter
p2264
I2
sVtax
p2265
I1
sVcovers
p2266
I1
sVpast
p2267
I1
sVeffectively
p2268
I1
sVzero
p2269
I1
sVbooks
p2270
I1
sVuncomplainingly
p2271
I1
sV've
p2272
I1
sVspecial
p2273
I1
sVlaw
p2274
I3
sVsell
p2275
I1
sVhuge
p2276
I1
sVsaid
p2277
I1
sVlots
p2278
I1
sVpay
p2279
I2
sVwhereas
p2280
I1
sVget
p2281
I1
sVstayed
p2282
I1
sV're
p2283
I2
sVexercise
p2284
I1
sVstock
p2285
I3
sVhttp
p2286
I2
sVnever
p2287
I1
sVpayroll
p2288
I1
sVreflect
p2289
I1
sVreason
p2290
I1
sVarticle
p2291
I1
sVcities
p2292
I1
sVsalary
p2293
I1
sVadvance
p2294
I1
sVrevenues
p2295
I4
sVcould
p2296
I1
sVwell
p2297
I1
sVnofollow
p2298
I1
sVsf
p2299
I1
sVyet.
p2300
I1
sVrather
p2301
I1
sVfact
p2302
I1
sVweird
p2303
I1
sVasked
p2304
I1
sVid=2331182
p2305
I2
sVlaws
p2306
I1
stRp2307
sg10
(S'\x07\xdb\t\x0c'
tRp2308
g12
(g13
g14
(dtRp2309
sg10
(S'\x07\xdb\x05\x11'
tRp2310
g12
(g13
g14
(dtRp2311
sg10
(S'\x07\xdb\x0c\x01'
tRp2312
g12
(g13
g14
(dtRp2313
sg10
(S'\x07\xdb\x06\x02'
tRp2314
g12
(g13
g14
(dtRp2315
sg10
(S'\x07\xdb\x03\x17'
tRp2316
g12
(g13
g14
(dtRp2317
sg10
(S'\x07\xdb\t\x07'
tRp2318
g12
(g13
g14
(dtRp2319
sg10
(S'\x07\xdb\x07\x06'
tRp2320
g12
(g13
g14
(dtRp2321
sg10
(S'\x07\xdb\x0b\x07'
tRp2322
g12
(g13
g14
(dtRp2323
sg10
(S'\x07\xdb\x08\x01'
tRp2324
g12
(g13
g14
(dtRp2325
sg10
(S'\x07\xdb\x0c\x06'
tRp2326
g12
(g13
g14
(dtRp2327
sg10
(S'\x07\xdb\x06\x0b'
tRp2328
g12
(g13
g14
(dtRp2329
sg10
(S'\x07\xdb\x03\x0e'
tRp2330
g12
(g13
g14
(dtRp2331
sg10
(S'\x07\xdb\t\x1e'
tRp2332
g12
(g13
g14
(dtRp2333
sg10
(S'\x07\xdb\x07\r'
tRp2334
g12
(g13
g14
(dtRp2335
sg10
(S'\x07\xdb\x0b\x0e'
tRp2336
g12
(g13
g14
(dtRp2337
sg578
g12
(g13
g14
(dtRp2338
sg10
(S'\x07\xdb\x02\x16'
tRp2339
g12
(g13
g14
(dtRp2340
sg10
(S'\x07\xdb\x04\x0b'
tRp2341
g12
(g13
g14
(dtRp2342
sg10
(S'\x07\xdb\x08\x0e'
tRp2343
g12
(g13
g14
(dtRp2344
sg10
(S'\x07\xdb\x0c\x0f'
tRp2345
g12
(g13
g14
(dtRp2346
sg10
(S'\x07\xdb\x06\x14'
tRp2347
g12
(g13
g14
(dtRp2348
sg10
(S'\x07\xdb\x03\x05'
tRp2349
g12
(g13
g14
(dtRp2350
sg10
(S'\x07\xdb\t\x11'
tRp2351
g12
(g13
g14
(dtRp2352
sg10
(S'\x07\xdb\x07\x14'
tRp2353
g12
(g13
g14
(dtRp2354
sg10
(S'\x07\xdb\n\x06'
tRp2355
g12
(g13
g14
(dtRp2356
sg10
(S'\x07\xdb\x0b\x15'
tRp2357
g12
(g13
g14
(dtRp2358
sg10
(S'\x07\xdb\x01\x08'
tRp2359
g12
(g13
g14
(dtRp2360
sg10
(S'\x07\xdb\x02\x0f'
tRp2361
g12
(g13
g14
(dtRp2362
sg10
(S'\x07\xdb\x08\x17'
tRp2363
g12
(g13
g14
(dtRp2364
sg10
(S'\x07\xdb\x05\x08'
tRp2365
g12
(g13
g14
(dtRp2366
sg10
(S'\x07\xdb\x06\x1d'
tRp2367
g12
(g13
g14
(dtRp2368
sg10
(S'\x07\xdb\x07\x13'
tRp2369
g12
(g13
g14
(dtRp2370
sg10
(S'\x07\xdb\n\x0f'
tRp2371
g12
(g13
g14
(dtRp2372
sg10
(S'\x07\xdb\x0b\x1c'
tRp2373
g12
(g13
g14
(dtRp2374
sg10
(S'\x07\xdb\x01\x13'
tRp2375
g12
(g13
g14
(dtRp2376
sg10
(S'\x07\xdb\x04\x19'
tRp2377
g12
(g13
g14
(dtRp2378
sg10
(S'\x07\xdb\x08\x1c'
tRp2379
g12
(g13
g14
(dtRp2380
sg10
(S'\x07\xdb\x05\x03'
tRp2381
g12
(g13
g14
(dtRp2382
sg10
(S'\x07\xdb\x07\x1a'
tRp2383
g12
(g13
g14
(dtRp2384
sg10
(S'\x07\xdb\n\x10'
tRp2385
g12
(g13
g14
(dtRp2386
sg10
(S'\x07\xdb\x01\x1a'
tRp2387
g12
(g13
g14
(dtRp2388
sg10
(S'\x07\xdb\x04\x1e'
tRp2389
g12
(g13
g14
(dtRp2390
sg10
(S'\x07\xdb\x05\x1a'
tRp2391
g12
(g13
g14
(dtRp2392
sg10
(S'\x07\xdb\x0c\x14'
tRp2393
g12
(g13
g14
(dtRp2394
sg10
(S'\x07\xdb\n\x19'
tRp2395
g12
(g13
g14
(dtRp2396
sg10
(S'\x07\xdb\x03\x1c'
tRp2397
g12
(g13
g14
(dtRp2398
sg10
(S'\x07\xdb\t\x08'
tRp2399
g12
(g13
g14
(dtRp2400
sg10
(S'\x07\xdb\x01\x1d'
tRp2401
g12
(g13
g14
(dtRp2402
sg10
(S'\x07\xdb\x04\x17'
tRp2403
g12
(g13
g14
(dtRp2404
sg10
(S'\x07\xdb\x05\x15'
tRp2405
g12
(g13
g14
(dtRp2406
sg10
(S'\x07\xdb\x0c\x1d'
tRp2407
g12
(g13
g14
(dtRp2408
sg10
(S'\x07\xdb\x06\x06'
tRp2409
g12
(g13
g14
(dtRp2410
sg10
(S'\x07\xdb\x03\x13'
tRp2411
g12
(g13
g14
(dtRp2412
sg10
(S'\x07\xdb\t\x03'
tRp2413
g12
(g13
g14
(dtRp2414
sg10
(S'\x07\xdb\x0b\x03'
tRp2415
g12
(g13
g14
(dtRp2416
sg10
(S'\x07\xdb\x02\x19'
tRp2417
g12
(g13
g14
(dtRp2418
sg10
(S'\x07\xdb\x08\x05'
tRp2419
g12
(g13
g14
(dtRp2420
sg10
(S'\x07\xdb\x0c\x02'
tRp2421
g12
(g13
g14
(dtRp2422
sg10
(S'\x07\xdb\x06\x0f'
tRp2423
g12
(g13
g14
(dtRp2424
sg10
(S'\x07\xdb\x03\n'
tRp2425
g12
(g13
g14
(dtRp2426
sg10
(S'\x07\xdb\t\x1a'
tRp2427
g12
(g13
g14
(dtRp2428
sg10
(S'\x07\xdb\x07\x01'
tRp2429
g12
(g13
g14
(dtRp2430
sg10
(S'\x07\xdb\x0b\n'
tRp2431
g12
(g13
g14
(dtRp2432
sg10
(S'\x07\xdb\x02\x12'
tRp2433
g12
(g13
g14
(dtRp2434
sg10
(S'\x07\xdb\x08\x02'
tRp2435
g12
(g13
g14
(dtRp2436
sg10
(S'\x07\xdb\x0c\x0b'
tRp2437
g12
(g13
g14
(dtRp2438
sg10
(S'\x07\xdb\x06\x08'
tRp2439
g12
(g13
g14
(dtRp2440
sg10
(S'\x07\xdb\x03\x01'
tRp2441
g12
(g13
g14
(dtRp2442
sg10
(S'\x07\xdb\t\x1d'
tRp2443
g12
(g13
g14
(dtRp2444
sg10
(S'\x07\xdb\x07\x08'
tRp2445
g12
(g13
g14
(dtRp2446
sg10
(S'\x07\xdb\n\x02'
tRp2447
g12
(g13
g14
(dtRp2448
sg10
(S'\x07\xdb\x0b\x11'
tRp2449
g12
(g13
g14
(dtRp2450
sg10
(S'\x07\xdb\x01\x04'
tRp2451
g12
(g13
g14
(dtRp2452
sg10
(S'\x07\xdb\x02\x0b'
tRp2453
g12
(g13
g14
(dtRp2454
sg10
(S'\x07\xdb\x04\x0c'
tRp2455
g12
(g13
g14
(dtRp2456
sg10
(S'\x07\xdb\x08\x0b'
tRp2457
g12
(g13
g14
(dtRp2458
sg10
(S'\x07\xdb\x05\x0c'
tRp2459
g12
(g13
g14
(dtRp2460
sg10
(S'\x07\xdb\x06\x11'
tRp2461
g12
(g13
g14
(dtRp2462
sg10
(S'\x07\xdb\t\x14'
tRp2463
g12
(g13
g14
(dtRp2464
sg10
(S'\x07\xdb\x07\x17'
tRp2465
g12
(g13
g14
(dtRp2466
sg10
(S'\x07\xdb\n\x0b'
tRp2467
g12
(g13
g14
(dtRp2468
sg10
(S'\x07\xdb\x0b\x18'
tRp2469
g12
(g13
g14
(dtRp2470
sg10
(S'\x07\xdb\x01\x0f'
tRp2471
g12
(g13
g14
(dtRp2472
sg10
(S'\x07\xdb\x02\x0c'
tRp2473
g12
(g13
g14
(dtRp2474
sg10
(S'\x07\xdb\x04\x05'
tRp2475
g12
(g13
g14
(dtRp2476
sg10
(S'\x07\xdb\x08\x10'
tRp2477
g12
(g13
g14
(dtRp2478
sg10
(S'\x07\xdb\x05\x07'
tRp2479
g12
(g13
g14
(dtRp2480
sg10
(S'\x07\xdb\x06\x1a'
tRp2481
g12
(g13
g14
(dtRp2482
sg10
(S'\x07\xdb\x07\x1e'
tRp2483
g12
(g13
g14
(dtRp2484
sg10
(S'\x07\xdb\n\x0c'
tRp2485
g12
(g13
g14
(dtRp2486
sg10
(S'\x07\xdb\x01\x16'
tRp2487
g12
(g13
g14
(dtRp2488
sg10
(S'\x07\xdb\x02\x05'
tRp2489
g12
(g13
g14
(dtRp2490
sg10
(S'\x07\xdb\x04\x1a'
tRp2491
g12
(g13
g14
(dtRp2492
sg10
(S'\x07\xdb\x08\x19'
tRp2493
g12
(g13
g14
(dtRp2494
sg10
(S'\x07\xdb\x05\x1e'
tRp2495
g12
(g13
g14
(dtRp2496
sg10
(S'\x07\xdb\x0c\x10'
tRp2497
g12
(g13
g14
(dtRp2498
sg10
(S'\x07\xdb\n\x15'
tRp2499
g12
(g13
g14
(dtRp2500
sg10
(S'\x07\xdb\x03\x18'
tRp2501
g12
(g13
g14
(dtRp2502
sg10
(S'\x07\xdb\x01\x19'
tRp2503
g12
(g13
g14
(dtRp2504
sg10
(S'\x07\xdb\x04\x13'
tRp2505
g12
(g13
g14
(dtRp2506
sg10
(S'\x07\xdb\x05\x19'
tRp2507
g12
(g13
g14
(dtRp2508
sg10
(S'\x07\xdb\x0c\x19'
tRp2509
g12
(g13
g14
(dtRp2510
sg10
(S'\x07\xdb\n\x1e'
tRp2511
g12
(g13
g14
(dtRp2512
sg10
(S'\x07\xdb\x03\x1f'
tRp2513
g12
(g13
g14
(dtRp2514
sg10
(S'\x07\xdb\t\x0f'
tRp2515
g12
(g13
g14
(dtRp2516
sg10
(S'\x07\xdb\x05\x10'
tRp2517
g12
(g13
g14
(dtRp2518
sg10
(S'\x07\xdb\x0c\x1e'
tRp2519
g12
(g13
g14
(dtRp2520
sg10
(S'\x07\xdb\x06\x03'
tRp2521
g12
(g13
g14
(dtRp2522
sg10
(S'\x07\xdb\x03\x16'
tRp2523
g12
(g13
g14
(dtRp2524
sg10
(S'\x07\xdb\t\x06'
tRp2525
g12
(g13
g14
(dtRp2526
sg10
(S'\x07\xdb\x07\x05'
tRp2527
g12
(g13
g14
(dtRp2528
sg10
(S'\x07\xdb\x0b\x06'
tRp2529
g12
(g13
g14
(dtRp2530
sg10
(S'\x07\xdb\x08\x06'
tRp2531
g12
(g13
g14
(dtRp2532
sg10
(S'\x07\xdb\x0c\x07'
tRp2533
g12
(g13
g14
(dtRp2534
sg10
(S'\x07\xdb\x06\x0c'
tRp2535
g12
(g13
g14
(dtRp2536
sg10
(S'\x07\xdb\x03\r'
tRp2537
g12
(g13
g14
(dtRp2538
sg10
(S'\x07\xdb\t\x19'
tRp2539
g12
(g13
g14
(dtRp2540
sg10
(S'\x07\xdb\x07\x0c'
tRp2541
g12
(g13
g14
(dtRp2542
sg10
(S'\x07\xdb\x0b\r'
tRp2543
g12
(g13
g14
(dtRp2544
sg10
(S'\x07\xdb\x02\x17'
tRp2545
g12
(g13
g14
(dtRp2546
sg10
(S'\x07\xdb\x04\x08'
tRp2547
g12
(g13
g14
(dtRp2548
sg10
(S'\x07\xdb\x08\x0f'
tRp2549
g12
(g13
g14
(dtRp2550
sg10
(S'\x07\xdb\x0c\x0c'
tRp2551
g12
(g13
g14
(dtRp2552
sg10
(S'\x07\xdb\x06\x15'
tRp2553
g12
(g13
g14
(dtRp2554
sg10
(S'\x07\xdb\x03\x04'
tRp2555
g12
(g13
g14
(dtRp2556
sg10
(S'\x07\xdb\t\x10'
tRp2557
g12
(g13
g14
(dtRp2558
sg10
(S'\x07\xdb\x07\x0b'
tRp2559
g12
(g13
g14
(dtRp2560
sg10
(S'\x07\xdb\n\x07'
tRp2561
g12
(g13
g14
(dtRp2562
sg10
(S'\x07\xdb\x0b\x14'
tRp2563
g12
(g13
g14
(dtRp2564
sg10
(S'\x07\xdb\x01\x0b'
tRp2565
g12
(g13
g14
(dtRp2566
sg10
(S'\x07\xdb\x02\x08'
tRp2567
g12
(g13
g14
(dtRp2568
sg10
(S'\x07\xdb\x04\x01'
tRp2569
g12
(g13
g14
(dtRp2570
sg10
(S'\x07\xdb\x08\x14'
tRp2571
g12
(g13
g14
(dtRp2572
sg10
(S'\x07\xdb\x05\x0b'
tRp2573
g12
(g13
g14
(dtRp2574
sg10
(S'\x07\xdb\x06\x1e'
tRp2575
g12
(g13
g14
(dtRp2576
sg10
(S'\x07\xdb\x07\x12'
tRp2577
g12
(g13
g14
(dtRp2578
sg10
(S'\x07\xdb\n\x08'
tRp2579
g12
(g13
g14
(dtRp2580
sg10
(S'\x07\xdb\x0b\x1b'
tRp2581
g12
(g13
g14
(dtRp2582
sg10
(S'\x07\xdb\x01\x12'
tRp2583
g12
(g13
g14
(dtRp2584
sg10
(S'\x07\xdb\x02\x01'
tRp2585
g12
(g13
g14
(dtRp2586
sg10
(S'\x07\xdb\x04\x06'
tRp2587
g12
(g13
g14
(dtRp2588
sg10
(S'\x07\xdb\x08\x1d'
tRp2589
g12
(g13
g14
(dtRp2590
sg10
(S'\x07\xdb\x05\x02'
tRp2591
g12
(g13
g14
(dtRp2592
sg10
(S'\x07\xdb\x07\x19'
tRp2593
g12
(g13
g14
(dtRp2594
sg10
(S'\x07\xdb\n\x11'
tRp2595
g12
(g13
g14
(dtRp2596
sg10
(S'\x07\xdb\x01\x15'
tRp2597
g12
(g13
g14
(dtRp2598
sg10
(S'\x07\xdb\x08\x1a'
tRp2599
g12
(g13
g14
(dtRp2600
sg10
(S'\x07\xdb\x05\x1d'
tRp2601
g12
(g13
g14
(dtRp2602
sg10
(S'\x07\xdb\x0c\x15'
tRp2603
g12
(g13
g14
(dtRp2604
sg10
(S'\x07\xdb\n\x1a'
tRp2605
g12
(g13
g14
(dtRp2606
sg10
(S'\x07\xdb\x03\x1b'
tRp2607
g12
(g13
g14
(dtRp2608
sg10
(S'\x07\xdb\t\x0b'
tRp2609
g12
(g13
g14
(dtRp2610
sg10
(S'\x07\xdb\x01\x1c'
tRp2611
g12
(g13
g14
(dtRp2612
sg10
(S'\x07\xdb\x04\x14'
tRp2613
g12
(g13
g14
(dtRp2614
sg10
(S'\x07\xdb\x05\x14'
tRp2615
g12
(g13
g14
(dtRp2616
sg10
(S'\x07\xdb\x0c\x1a'
tRp2617
g12
(g13
g14
(dtRp2618
sg10
(S'\x07\xdb\x06\x07'
tRp2619
g12
(g13
g14
(dtRp2620
sg10
(S'\x07\xdb\x03\x12'
tRp2621
g12
(g13
g14
(dtRp2622
sg10
(S'\x07\xdb\t\x02'
tRp2623
g12
(g13
g14
(dtRp2624
sg10
(S'\x07\xdb\x0b\x02'
tRp2625
g12
(g13
g14
(dtRp2626
sg10
(S'\x07\xdb\x02\x1a'
tRp2627
g12
(g13
g14
(dtRp2628
sg10
(S'\x07\xdb\x0c\x03'
tRp2629
g12
(g13
g14
(dtRp2630
sg10
(S'\x07\xdb\x03\t'
tRp2631
g12
(g13
g14
(dtRp2632
sg10
(S'\x07\xdb\t\x05'
tRp2633
g12
(g13
g14
(dtRp2634
sg10
(S'\x07\xdb\x0b\t'
tRp2635
g12
(g13
g14
(dtRp2636
sg10
(S'\x07\xdb\x02\x13'
tRp2637
g12
(g13
g14
(dtRp2638
sg10
(S'\x07\xdb\x08\x03'
tRp2639
g12
(g13
g14
(dtRp2640
sg10
(S'\x07\xdb\x0c\x08'
tRp2641
g12
(g13
g14
(dtRp2642
sg10
(S'\x07\xdb\x06\t'
tRp2643
g12
(g13
g14
(dtRp2644
sg10
(S'\x07\xdb\t\x1c'
tRp2645
g12
(g13
g14
(dtRp2646
sg10
(S'\x07\xdb\x07\x0f'
tRp2647
g12
(g13
g14
(dtRp2648
sg10
(S'\x07\xdb\n\x03'
tRp2649
g12
(g13
g14
(dtRp2650
sg10
(S'\x07\xdb\x0b\x10'
tRp2651
g12
(g13
g14
(dtRp2652
sg10
(S'\x07\xdb\x01\x07'
tRp2653
g12
(g13
g14
(dtRp2654
sg10
(S'\x07\xdb\x02\x14'
tRp2655
g12
(g13
g14
(dtRp2656
sg10
(S'\x07\xdb\x04\r'
tRp2657
g12
(g13
g14
(dtRp2658
sg10
(S'\x07\xdb\x08\x08'
tRp2659
g12
(g13
g14
(dtRp2660
sg10
(S'\x07\xdb\x05\x0f'
tRp2661
g12
(g13
g14
(dtRp2662
sg10
(S'\x07\xdb\x06\x12'
tRp2663
g12
(g13
g14
(dtRp2664
sg10
(S'\x07\xdb\x03\x07'
tRp2665
g12
(g13
g14
(dtRp2666
sg10
(S'\x07\xdb\t\x17'
tRp2667
g12
(g13
g14
(dtRp2668
sg10
(S'\x07\xdb\x07\x16'
tRp2669
g12
(g13
g14
(dtRp2670
sg10
(S'\x07\xdb\n\x04'
tRp2671
g12
(g13
g14
(dtRp2672
sg10
(S'\x07\xdb\x0b\x17'
tRp2673
g12
(g13
g14
(dtRp2674
sg10
(S'\x07\xdb\x01\x0e'
tRp2675
g12
(g13
g14
(dtRp2676
sg10
(S'\x07\xdb\x02\r'
tRp2677
g12
(g13
g14
(dtRp2678
sg10
(S'\x07\xdb\x04\x02'
tRp2679
g12
(g13
g14
(dtRp2680
sg10
(S'\x07\xdb\x08\x11'
tRp2681
g12
(g13
g14
(dtRp2682
sg10
(S'\x07\xdb\x05\x06'
tRp2683
g12
(g13
g14
(dtRp2684
sg10
(S'\x07\xdb\x06\x1b'
tRp2685
g12
(g13
g14
(dtRp2686
sg10
(S'\x07\xdb\x07\x1d'
tRp2687
g12
(g13
g14
(dtRp2688
sg10
(S'\x07\xdb\n\r'
tRp2689
g12
(g13
g14
(dtRp2690
sg10
(S'\x07\xdb\x0b\x1e'
tRp2691
g12
(g13
g14
(dtRp2692
sg10
(S'\x07\xdb\x01\x11'
tRp2693
g12
(g13
g14
(dtRp2694
sg10
(S'\x07\xdb\x02\x06'
tRp2695
g12
(g13
g14
(dtRp2696
sg10
(S'\x07\xdb\x04\x1b'
tRp2697
g12
(g13
g14
(dtRp2698
sg10
(S'\x07\xdb\x08\x1e'
tRp2699
g12
(g13
g14
(dtRp2700
sg10
(S'\x07\xdb\x05\x01'
tRp2701
g12
(g13
g14
(dtRp2702
sg10
(S'\x07\xdb\x0c\x11'
tRp2703
g12
(g13
g14
(dtRp2704
sg10
(S'\x07\xdb\n\x16'
tRp2705
g12
(g13
g14
(dtRp2706
sg10
(S'\x07\xdb\x01\x18'
tRp2707
g12
(g13
g14
(dtRp2708
sg10
(S'\x07\xdb\x04\x10'
tRp2709
g12
(g13
g14
(dtRp2710
sg10
(S'\x07\xdb\x05\x18'
tRp2711
g12
(g13
g14
(dtRp2712
sg10
(S'\x07\xdb\x0c\x16'
tRp2713
g12
(g13
g14
(dtRp2714
sg10
(S'\x07\xdb\n\x1f'
tRp2715
g12
(g13
g14
(dtRp2716
sg10
(S'\x07\xdb\x03\x1e'
tRp2717
g12
(g13
g14
(dtRp2718
sg10
(S'\x07\xdb\t\x0e'
tRp2719
g12
(g13
g14
(dtRp2720
sg10
(S'\x07\xdb\x05\x13'
tRp2721
g12
(g13
g14
(dtRp2722
sg10
(S'\x07\xdb\x0c\x1f'
tRp2723
g12
(g13
g14
(dtRp2724
sg10
(S'\x07\xdb\x06\x04'
tRp2725
g12
(g13
g14
(dtRp2726
sg10
(S'\x07\xdb\x03\x15'
tRp2727
g12
(g13
g14
(dtRp2728
sg10
(S'\x07\xdb\t\x01'
tRp2729
g12
(g13
g14
(dtRp2730
sg10
(S'\x07\xdb\x07\x04'
tRp2731
g12
(g13
g14
(dtRp2732
ssbsVaapl
p2733
(iTimeSeries
TimeSeries
p2734
(dp2735
g8
(dp2736
g10
(S'\x07\xdb\x0b\x05'
tRp2737
g12
(g13
g14
(dtRp2738
sg10
(S'\x07\xdb\x08\x07'
tRp2739
g12
(g13
g14
(dtRp2740
sg10
(S'\x07\xdb\x0c\x04'
tRp2741
g12
(g13
g14
(dtRp2742
sg10
(S'\x07\xdb\x06\r'
tRp2743
g12
(g13
g14
(dtRp2744
sg10
(S'\x07\xdb\x03\x0c'
tRp2745
g12
(g13
g14
(dtRp2746
sg10
(S'\x07\xdb\t\x18'
tRp2747
g12
(g13
g14
(dtRp2748
sg10
(S'\x07\xdb\x07\x03'
tRp2749
g12
(g13
g14
(dtRp2750
sg10
(S'\x07\xdb\x0b\x0c'
tRp2751
g12
(g13
g14
(dtRp2752
sg10
(S'\x07\xdb\x01\x03'
tRp2753
g12
(g13
g14
(dtRp2754
sg10
(S'\x07\xdb\x02\x10'
tRp2755
g12
(g13
g14
(dtRp2756
sg10
(S'\x07\xdb\x04\t'
tRp2757
g12
(g13
g14
(dtRp2758
sg10
(S'\x07\xdb\x08\x0c'
tRp2759
g12
(g13
g14
(dtRp2760
sg10
(S'\x07\xdb\x0c\r'
tRp2761
g12
(g13
g14
(dtRp2762
sg10
(S'\x07\xdb\x06\x16'
tRp2763
g12
(g13
g14
(dtRp2764
sg10
(S'\x07\xdb\x03\x03'
tRp2765
g12
(g13
g14
(dtRp2766
sg10
(S'\x07\xdb\t\x13'
tRp2767
g12
(g13
g14
(dtRp2768
sg10
(S'\x07\xdb\x07\n'
tRp2769
g12
(g13
g14
(dtRp2770
sg10
(S'\x07\xdb\x0b\x13'
tRp2771
g12
(g13
g14
(dtRp2772
sg10
(S'\x07\xdb\x01\n'
tRp2773
g12
(g13
g14
(dtRp2774
sg10
(S'\x07\xdb\x02\t'
tRp2775
g12
(g13
g14
(dtRp2776
sg10
(S'\x07\xdb\x04\x0e'
tRp2777
g12
(g13
g14
(dtRp2778
sg10
(S'\x07\xdb\x08\x15'
tRp2779
g12
(g13
g14
(dtRp2780
sg10
(S'\x07\xdb\x05\n'
tRp2781
g12
(g13
g14
(dtRp2782
sg10
(S'\x07\xdb\x07\x11'
tRp2783
g12
(g13
g14
(dtRp2784
sg10
(S'\x07\xdb\n\t'
tRp2785
g12
(g13
g14
(dtRp2786
sg10
(S'\x07\xdb\x0b\x1a'
tRp2787
g12
(g13
g14
(dtRp2788
sg10
(S'\x07\xdb\x01\r'
tRp2789
g12
(g13
g14
(dtRp2790
sg10
(S'\x07\xdb\x02\x02'
tRp2791
g12
(g13
g14
(dtRp2792
sg10
(S'\x07\xdb\x04\x07'
tRp2793
g12
(g13
g14
(dtRp2794
sg10
(S'\x07\xdb\x08\x12'
tRp2795
g12
(g13
g14
(dtRp2796
sg10
(S'\x07\xdb\x05\x05'
tRp2797
g12
(g13
g14
(dtRp2798
sg10
(S'\x07\xdb\x06\x18'
tRp2799
g12
(g13
g14
(dtRp2800
sg10
(S'\x07\xdb\x07\x18'
tRp2801
g12
(g13
g14
(dtRp2802
sg10
(S'\x07\xdb\n\x12'
tRp2803
g12
(g13
g14
(dtRp2804
sg10
(S'\x07\xdb\x01\x14'
tRp2805
g12
(g13
g14
(dtRp2806
sg10
(S'\x07\xdb\x04\x1c'
tRp2807
g12
(g13
g14
(dtRp2808
sg10
(S'\x07\xdb\x08\x1b'
tRp2809
g12
(g13
g14
(dtRp2810
sg10
(S'\x07\xdb\x05\x1c'
tRp2811
g12
(g13
g14
(dtRp2812
sg10
(S'\x07\xdb\x0c\x12'
tRp2813
g12
(g13
g14
(dtRp2814
sg10
(S'\x07\xdb\n\x1b'
tRp2815
g12
(g13
g14
(dtRp2816
sg10
(S'\x07\xdb\x03\x1a'
tRp2817
g12
(g13
g14
(dtRp2818
sg10
(S'\x07\xdb\t\n'
tRp2819
g12
(g13
g14
(dtRp2820
sg10
(S'\x07\xdb\x01\x1f'
tRp2821
g12
(g13
g14
(dtRp2822
sg10
(S'\x07\xdb\x04\x15'
tRp2823
g12
(g13
g14
(dtRp2824
sg10
(S'\x07\xdb\x05\x17'
tRp2825
g12
(g13
g14
(dtRp2826
sg10
(S'\x07\xdb\x0c\x1b'
tRp2827
g12
(g13
g14
(dtRp2828
sg10
(S'\x07\xdb\n\x1c'
tRp2829
g12
(g13
g14
(dtRp2830
sg10
(S'\x07\xdb\x03\x11'
tRp2831
g12
(g13
g14
(dtRp2832
sg10
(S'\x07\xdb\t\r'
tRp2833
g12
(g13
g14
(dtRp2834
sg10
(S'\x07\xdb\x0b\x01'
tRp2835
g12
(g13
g14
(dtRp2836
sg10
(S'\x07\xdb\x02\x1b'
tRp2837
g12
(g13
g14
(dtRp2838
sg10
(S'\x07\xdb\x06\x01'
tRp2839
g12
(g13
g14
(dtRp2840
sg10
(S'\x07\xdb\x03\x08'
tRp2841
g12
(g13
g14
(dtRp2842
sg10
(S'\x07\xdb\t\x04'
tRp2843
g12
(g13
g14
(dtRp2844
sg10
(S'\x07\xdb\x07\x07'
tRp2845
g12
(g13
g14
(dtRp2846
sg10
(S'\x07\xdb\x0b\x08'
tRp2847
g12
(g13
g14
(dtRp2848
sg10
(S'\x07\xdb\x02\x1c'
tRp2849
g12
(g13
g14
(dtRp2850
sg10
(S'\x07\xdb\x0c\t'
tRp2851
g12
(g13
g14
(dtRp2852
sg10
(S'\x07\xdb\x06\n'
tRp2853
g12
(g13
g14
(dtRp2854
sg10
(S'\x07\xdb\x03\x0f'
tRp2855
g12
(g13
g14
(dtRp2856
sg10
(S'\x07\xdb\x07\x0e'
tRp2857
g12
(g13
g14
(dtRp2858
sg10
(S'\x07\xdb\x0b\x0f'
tRp2859
g12
(g13
g14
(dtRp2860
sg10
(S'\x07\xdb\x01\x06'
tRp2861
g12
(g13
g14
(dtRp2862
sg10
(S'\x07\xdb\x02\x15'
tRp2863
g12
(g13
g14
(dtRp2864
sg10
(S'\x07\xdb\x04\n'
tRp2865
g12
(g13
g14
(dtRp2866
sg10
(S'\x07\xdb\x08\t'
tRp2867
g12
(g13
g14
(dtRp2868
sg10
(S'\x07\xdb\x05\x0e'
tRp2869
g12
(g13
g14
(dtRp2870
sg10
(S'\x07\xdb\x0c\x0e'
tRp2871
g12
(g13
g14
(dtRp2872
sg10
(S'\x07\xdb\x06\x13'
tRp2873
g12
(g13
g14
(dtRp2874
sg10
(S'\x07\xdb\x03\x06'
tRp2875
g12
(g13
g14
(dtRp2876
sg10
(S'\x07\xdb\t\x16'
tRp2877
g12
(g13
g14
(dtRp2878
sg10
(S'\x07\xdb\x07\x15'
tRp2879
g12
(g13
g14
(dtRp2880
sg10
(S'\x07\xdb\n\x05'
tRp2881
g12
(g13
g14
(dtRp2882
sg10
(S'\x07\xdb\x0b\x16'
tRp2883
g12
(g13
g14
(dtRp2884
sg10
(S'\x07\xdb\x01\t'
tRp2885
g12
(g13
g14
(dtRp2886
sg10
(S'\x07\xdb\x02\x0e'
tRp2887
g12
(g13
g14
(dtRp2888
sg10
(S'\x07\xdb\x04\x03'
tRp2889
g12
(g13
g14
(dtRp2890
sg10
(S'\x07\xdb\x08\x16'
tRp2891
g12
(g13
g14
(dtRp2892
sg10
(S'\x07\xdb\x05\t'
tRp2893
g12
(g13
g14
(dtRp2894
sg10
(S'\x07\xdb\x06\x1c'
tRp2895
g12
(g13
g14
(dtRp2896
sg10
(S'\x07\xdb\x07\x1c'
tRp2897
g12
(g13
g14
(dtRp2898
sg10
(S'\x07\xdb\n\x0e'
tRp2899
g12
(g13
g14
(dtRp2900
sg10
(S'\x07\xdb\x0b\x1d'
tRp2901
g12
(g13
g14
(dtRp2902
sg10
(S'\x07\xdb\x01\x10'
tRp2903
g12
(g13
g14
(dtRp2904
sg10
(S'\x07\xdb\x02\x07'
tRp2905
g12
(g13
g14
(dtRp2906
sg10
(S'\x07\xdb\x04\x18'
tRp2907
g12
(g13
g14
(dtRp2908
sg10
(S'\x07\xdb\x08\x1f'
tRp2909
g12
(g13
g14
(dtRp2910
sg10
(S'\x07\xdb\x07\x1b'
tRp2911
g12
(g13
g14
(dtRp2912
sg10
(S'\x07\xdb\n\x17'
tRp2913
g12
(g13
g14
(dtRp2914
sg10
(S'\x07\xdb\x01\x1b'
tRp2915
g12
(g13
g14
(dtRp2916
sg10
(S'\x07\xdb\x04\x11'
tRp2917
g12
(g13
g14
(dtRp2918
sg10
(S'\x07\xdb\x05\x1b'
tRp2919
g12
(g13
g14
(dtRp2920
sg10
(S'\x07\xdb\x0c\x17'
tRp2921
g12
(g13
g14
(dtRp2922
sg10
(S'\x07\xdb\n\x18'
tRp2923
g12
(g13
g14
(dtRp2924
sg10
(S'\x07\xdb\x03\x1d'
tRp2925
g12
(g13
g14
(dtRp2926
sg10
(S'\x07\xdb\t\t'
tRp2927
g12
(g13
g14
(dtRp2928
sg10
(S'\x07\xdb\x04\x16'
tRp2929
g12
(g13
g14
(dtRp2930
sg10
(S'\x07\xdb\x05\x12'
tRp2931
g12
(g13
g14
(dtRp2932
sg10
(S'\x07\xdb\x0c\x1c'
tRp2933
g12
(g13
g14
(dtRp2934
sg10
(S'\x07\xdb\x06\x05'
tRp2935
g12
(g13
g14
(dtRp2936
sg10
(S'\x07\xdb\x03\x14'
tRp2937
g12
(g13
g14
(dtRp2938
sg10
(S'\x07\xdb\x0b\x04'
tRp2939
g12
(g13
g14
(dtRp2940
sg10
(S'\x07\xdb\x02\x18'
tRp2941
g12
(g13
g14
(dtRp2942
sg10
(S'\x07\xdb\x08\x04'
tRp2943
g12
(g13
g14
(dtRp2944
sg10
(S'\x07\xdb\x0c\x05'
tRp2945
g12
(g13
g14
(dtRp2946
sg10
(S'\x07\xdb\x06\x0e'
tRp2947
g12
(g13
g14
(dtRp2948
sg10
(S'\x07\xdb\x03\x0b'
tRp2949
g12
(g13
g14
(dtRp2950
sg10
(S'\x07\xdb\t\x1b'
tRp2951
g12
(g13
g14
(dtRp2952
sg10
(S'\x07\xdb\x07\x02'
tRp2953
g12
(g13
g14
(dtRp2954
sg10
(S'\x07\xdb\x0b\x0b'
tRp2955
g12
(g13
g14
(dtRp2956
sg10
(S'\x07\xdb\x01\x02'
tRp2957
g12
(g13
g14
(dtRp2958
sg10
(S'\x07\xdb\x02\x11'
tRp2959
g12
(g13
g14
(dtRp2960
sg10
(S'\x07\xdb\x08\r'
tRp2961
g12
(g13
g14
(dtRp2962
sg10
(S'\x07\xdb\x0c\n'
tRp2963
g12
(g13
g14
(dtRp2964
sg10
(S'\x07\xdb\x06\x17'
tRp2965
g12
(g13
g14
(dtRp2966
sg10
(S'\x07\xdb\x03\x02'
tRp2967
g12
(g13
g14
(dtRp2968
sg10
(S'\x07\xdb\t\x12'
tRp2969
g12
(g13
g14
(dtRp2970
sg10
(S'\x07\xdb\x07\t'
tRp2971
g12
(g13
g14
(dtRp2972
sg10
(S'\x07\xdb\n\x01'
tRp2973
g12
(g13
g14
(dp2974
Vfounder
p2975
I1
sVpeople
p2976
I3
sVca
p2977
I1
sVinterviews
p2978
I2
sVsurprisingly
p2979
I1
sVgeneral
p2980
I1
sVsay
p2981
I1
sVunderlying
p2982
I1
sVbetraying
p2983
I1
sVpast.
p2984
I1
sVfail
p2985
I1
sVworried
p2986
I1
sVbest
p2987
I1
sV170
p2988
I1
sVfunding
p2989
I1
sVremind
p2990
I1
sVavoid
p2991
I1
sVcharacter
p2992
I1
sVsymptoms
p2993
I1
sV3
I1
sVvary.
p2994
I1
sVcauses
p2995
I1
sVlot
p2996
I1
sVprobably
p2997
I1
sVlearned
p2998
I1
sV's
p2999
I1
sVthough
p3000
I1
sVrules
p3001
I1
sVsucceed
p3002
I1
sV2
I1
sVcases
p3003
I1
sVspend
p3004
I1
sVlast
p3005
I1
sVavoiding
p3006
I1
sVfunded
p3007
I1
sVbatch
p3008
I1
sVus
p3009
I1
sV've
p3010
I2
sVn't
p3011
I1
sVp
I2
sVbad
p3012
I2
sVapples
p3013
I2
sVtime
p3014
I1
sVusually
p3015
I1
sVworrying
p3016
I1
sVlying
p3017
I1
stRp3018
sg10
(S'\x07\xdb\x0b\x12'
tRp3019
g12
(g13
g14
(dtRp3020
sg10
(S'\x07\xdb\x01\x05'
tRp3021
g12
(g13
g14
(dtRp3022
sg10
(S'\x07\xdb\x02\n'
tRp3023
g12
(g13
g14
(dp3024
Vunusual
p3025
I1
sVlast
p3026
I1
sVanything
p3027
I1
sVlots
p3028
I1
sVyc
p3029
I1
sVnever
p3030
I1
sVoccurred
p3031
I1
sVyears
p3032
I1
sV2
I1
sVfounders
p3033
I1
sVseem
p3034
I1
stRp3035
sg10
(S'\x07\xdb\x04\x0f'
tRp3036
g12
(g13
g14
(dtRp3037
sg10
(S'\x07\xdb\x08\n'
tRp3038
g12
(g13
g14
(dtRp3039
sg10
(S'\x07\xdb\x05\r'
tRp3040
g12
(g13
g14
(dtRp3041
sg10
(S'\x07\xdb\x06\x10'
tRp3042
g12
(g13
g14
(dtRp3043
sg10
(S'\x07\xdb\t\x15'
tRp3044
g12
(g13
g14
(dtRp3045
sg10
(S'\x07\xdb\x07\x10'
tRp3046
g12
(g13
g14
(dtRp3047
sg10
(S'\x07\xdb\n\n'
tRp3048
g12
(g13
g14
(dtRp3049
sg10
(S'\x07\xdb\x0b\x19'
tRp3050
g12
(g13
g14
(dtRp3051
sg10
(S'\x07\xdb\x01\x0c'
tRp3052
g12
(g13
g14
(dtRp3053
sg10
(S'\x07\xdb\x02\x03'
tRp3054
g12
(g13
g14
(dtRp3055
sg10
(S'\x07\xdb\x04\x04'
tRp3056
g12
(g13
g14
(dtRp3057
sg10
(S'\x07\xdb\x08\x13'
tRp3058
g12
(g13
g14
(dtRp3059
sg10
(S'\x07\xdb\x05\x04'
tRp3060
g12
(g13
g14
(dtRp3061
sg10
(S'\x07\xdb\x06\x19'
tRp3062
g12
(g13
g14
(dtRp3063
sg10
(S'\x07\xdb\x07\x1f'
tRp3064
g12
(g13
g14
(dtRp3065
sg10
(S'\x07\xdb\n\x13'
tRp3066
g12
(g13
g14
(dtRp3067
sg10
(S'\x07\xdb\x01\x17'
tRp3068
g12
(g13
g14
(dtRp3069
sg10
(S'\x07\xdb\x02\x04'
tRp3070
g12
(g13
g14
(dtRp3071
sg10
(S'\x07\xdb\x04\x1d'
tRp3072
g12
(g13
g14
(dtRp3073
sg10
(S'\x07\xdb\x08\x18'
tRp3074
g12
(g13
g14
(dtRp3075
sg10
(S'\x07\xdb\x05\x1f'
tRp3076
g12
(g13
g14
(dtRp3077
sg10
(S'\x07\xdb\x0c\x13'
tRp3078
g12
(g13
g14
(dtRp3079
sg10
(S'\x07\xdb\n\x14'
tRp3080
g12
(g13
g14
(dtRp3081
sg10
(S'\x07\xdb\x03\x19'
tRp3082
g12
(g13
g14
(dtRp3083
sg10
(S'\x07\xdb\x01\x1e'
tRp3084
g12
(g13
g14
(dtRp3085
sg10
(S'\x07\xdb\x04\x12'
tRp3086
g12
(g13
g14
(dtRp3087
sg10
(S'\x07\xdb\x05\x16'
tRp3088
g12
(g13
g14
(dtRp3089
sg10
(S'\x07\xdb\x0c\x18'
tRp3090
g12
(g13
g14
(dtRp3091
sg10
(S'\x07\xdb\n\x1d'
tRp3092
g12
(g13
g14
(dtRp3093
sg10
(S'\x07\xdb\x03\x10'
tRp3094
g12
(g13
g14
(dtRp3095
sg10
(S'\x07\xdb\t\x0c'
tRp3096
g12
(g13
g14
(dtRp3097
sg10
(S'\x07\xdb\x05\x11'
tRp3098
g12
(g13
g14
(dtRp3099
sg10
(S'\x07\xdb\x0c\x01'
tRp3100
g12
(g13
g14
(dtRp3101
sg10
(S'\x07\xdb\x06\x02'
tRp3102
g12
(g13
g14
(dtRp3103
sg10
(S'\x07\xdb\x03\x17'
tRp3104
g12
(g13
g14
(dtRp3105
sg10
(S'\x07\xdb\t\x07'
tRp3106
g12
(g13
g14
(dtRp3107
sg10
(S'\x07\xdb\x07\x06'
tRp3108
g12
(g13
g14
(dtRp3109
sg10
(S'\x07\xdb\x0b\x07'
tRp3110
g12
(g13
g14
(dtRp3111
sg10
(S'\x07\xdb\x08\x01'
tRp3112
g12
(g13
g14
(dtRp3113
sg10
(S'\x07\xdb\x0c\x06'
tRp3114
g12
(g13
g14
(dtRp3115
sg10
(S'\x07\xdb\x06\x0b'
tRp3116
g12
(g13
g14
(dtRp3117
sg10
(S'\x07\xdb\x03\x0e'
tRp3118
g12
(g13
g14
(dtRp3119
sg10
(S'\x07\xdb\t\x1e'
tRp3120
g12
(g13
g14
(dtRp3121
sg10
(S'\x07\xdb\x07\r'
tRp3122
g12
(g13
g14
(dtRp3123
sg10
(S'\x07\xdb\x0b\x0e'
tRp3124
g12
(g13
g14
(dtRp3125
sg578
g12
(g13
g14
(dtRp3126
sg10
(S'\x07\xdb\x02\x16'
tRp3127
g12
(g13
g14
(dtRp3128
sg10
(S'\x07\xdb\x04\x0b'
tRp3129
g12
(g13
g14
(dtRp3130
sg10
(S'\x07\xdb\x08\x0e'
tRp3131
g12
(g13
g14
(dtRp3132
sg10
(S'\x07\xdb\x0c\x0f'
tRp3133
g12
(g13
g14
(dtRp3134
sg10
(S'\x07\xdb\x06\x14'
tRp3135
g12
(g13
g14
(dtRp3136
sg10
(S'\x07\xdb\x03\x05'
tRp3137
g12
(g13
g14
(dtRp3138
sg10
(S'\x07\xdb\t\x11'
tRp3139
g12
(g13
g14
(dtRp3140
sg10
(S'\x07\xdb\x07\x14'
tRp3141
g12
(g13
g14
(dtRp3142
sg10
(S'\x07\xdb\n\x06'
tRp3143
g12
(g13
g14
(dtRp3144
sg10
(S'\x07\xdb\x0b\x15'
tRp3145
g12
(g13
g14
(dtRp3146
sg10
(S'\x07\xdb\x01\x08'
tRp3147
g12
(g13
g14
(dtRp3148
sg10
(S'\x07\xdb\x02\x0f'
tRp3149
g12
(g13
g14
(dtRp3150
sg10
(S'\x07\xdb\x08\x17'
tRp3151
g12
(g13
g14
(dtRp3152
sg10
(S'\x07\xdb\x05\x08'
tRp3153
g12
(g13
g14
(dtRp3154
sg10
(S'\x07\xdb\x06\x1d'
tRp3155
g12
(g13
g14
(dtRp3156
sg10
(S'\x07\xdb\x07\x13'
tRp3157
g12
(g13
g14
(dtRp3158
sg10
(S'\x07\xdb\n\x0f'
tRp3159
g12
(g13
g14
(dtRp3160
sg10
(S'\x07\xdb\x0b\x1c'
tRp3161
g12
(g13
g14
(dtRp3162
sg10
(S'\x07\xdb\x01\x13'
tRp3163
g12
(g13
g14
(dtRp3164
sg10
(S'\x07\xdb\x04\x19'
tRp3165
g12
(g13
g14
(dtRp3166
sg10
(S'\x07\xdb\x08\x1c'
tRp3167
g12
(g13
g14
(dtRp3168
sg10
(S'\x07\xdb\x05\x03'
tRp3169
g12
(g13
g14
(dtRp3170
sg10
(S'\x07\xdb\x07\x1a'
tRp3171
g12
(g13
g14
(dtRp3172
sg10
(S'\x07\xdb\n\x10'
tRp3173
g12
(g13
g14
(dtRp3174
sg10
(S'\x07\xdb\x01\x1a'
tRp3175
g12
(g13
g14
(dtRp3176
sg10
(S'\x07\xdb\x04\x1e'
tRp3177
g12
(g13
g14
(dtRp3178
sg10
(S'\x07\xdb\x05\x1a'
tRp3179
g12
(g13
g14
(dtRp3180
sg10
(S'\x07\xdb\x0c\x14'
tRp3181
g12
(g13
g14
(dtRp3182
sg10
(S'\x07\xdb\n\x19'
tRp3183
g12
(g13
g14
(dtRp3184
sg10
(S'\x07\xdb\x03\x1c'
tRp3185
g12
(g13
g14
(dtRp3186
sg10
(S'\x07\xdb\t\x08'
tRp3187
g12
(g13
g14
(dtRp3188
sg10
(S'\x07\xdb\x01\x1d'
tRp3189
g12
(g13
g14
(dtRp3190
sg10
(S'\x07\xdb\x04\x17'
tRp3191
g12
(g13
g14
(dtRp3192
sg10
(S'\x07\xdb\x05\x15'
tRp3193
g12
(g13
g14
(dtRp3194
sg10
(S'\x07\xdb\x0c\x1d'
tRp3195
g12
(g13
g14
(dtRp3196
sg10
(S'\x07\xdb\x06\x06'
tRp3197
g12
(g13
g14
(dtRp3198
sg10
(S'\x07\xdb\x03\x13'
tRp3199
g12
(g13
g14
(dtRp3200
sg10
(S'\x07\xdb\t\x03'
tRp3201
g12
(g13
g14
(dtRp3202
sg10
(S'\x07\xdb\x0b\x03'
tRp3203
g12
(g13
g14
(dtRp3204
sg10
(S'\x07\xdb\x02\x19'
tRp3205
g12
(g13
g14
(dtRp3206
sg10
(S'\x07\xdb\x08\x05'
tRp3207
g12
(g13
g14
(dtRp3208
sg10
(S'\x07\xdb\x0c\x02'
tRp3209
g12
(g13
g14
(dtRp3210
sg10
(S'\x07\xdb\x06\x0f'
tRp3211
g12
(g13
g14
(dtRp3212
sg10
(S'\x07\xdb\x03\n'
tRp3213
g12
(g13
g14
(dtRp3214
sg10
(S'\x07\xdb\t\x1a'
tRp3215
g12
(g13
g14
(dtRp3216
sg10
(S'\x07\xdb\x07\x01'
tRp3217
g12
(g13
g14
(dtRp3218
sg10
(S'\x07\xdb\x0b\n'
tRp3219
g12
(g13
g14
(dtRp3220
sg10
(S'\x07\xdb\x02\x12'
tRp3221
g12
(g13
g14
(dtRp3222
sg10
(S'\x07\xdb\x08\x02'
tRp3223
g12
(g13
g14
(dtRp3224
sg10
(S'\x07\xdb\x0c\x0b'
tRp3225
g12
(g13
g14
(dtRp3226
sg10
(S'\x07\xdb\x06\x08'
tRp3227
g12
(g13
g14
(dtRp3228
sg10
(S'\x07\xdb\x03\x01'
tRp3229
g12
(g13
g14
(dtRp3230
sg10
(S'\x07\xdb\t\x1d'
tRp3231
g12
(g13
g14
(dtRp3232
sg10
(S'\x07\xdb\x07\x08'
tRp3233
g12
(g13
g14
(dtRp3234
sg10
(S'\x07\xdb\n\x02'
tRp3235
g12
(g13
g14
(dtRp3236
sg10
(S'\x07\xdb\x0b\x11'
tRp3237
g12
(g13
g14
(dtRp3238
sg10
(S'\x07\xdb\x01\x04'
tRp3239
g12
(g13
g14
(dtRp3240
sg10
(S'\x07\xdb\x02\x0b'
tRp3241
g12
(g13
g14
(dp3242
Vscreens
p3243
I1
sVuse
p3244
I1
sVpeople
p3245
I1
sVlarger
p3246
I1
sVdesks
p3247
I1
sVlaptops
p3248
I1
sVhook
p3249
I1
sVbelieve
p3250
I1
stRp3251
sg10
(S'\x07\xdb\x04\x0c'
tRp3252
g12
(g13
g14
(dtRp3253
sg10
(S'\x07\xdb\x08\x0b'
tRp3254
g12
(g13
g14
(dtRp3255
sg10
(S'\x07\xdb\x05\x0c'
tRp3256
g12
(g13
g14
(dtRp3257
sg10
(S'\x07\xdb\x06\x11'
tRp3258
g12
(g13
g14
(dtRp3259
sg10
(S'\x07\xdb\t\x14'
tRp3260
g12
(g13
g14
(dtRp3261
sg10
(S'\x07\xdb\x07\x17'
tRp3262
g12
(g13
g14
(dtRp3263
sg10
(S'\x07\xdb\n\x0b'
tRp3264
g12
(g13
g14
(dtRp3265
sg10
(S'\x07\xdb\x0b\x18'
tRp3266
g12
(g13
g14
(dtRp3267
sg10
(S'\x07\xdb\x01\x0f'
tRp3268
g12
(g13
g14
(dtRp3269
sg10
(S'\x07\xdb\x02\x0c'
tRp3270
g12
(g13
g14
(dtRp3271
sg10
(S'\x07\xdb\x04\x05'
tRp3272
g12
(g13
g14
(dtRp3273
sg10
(S'\x07\xdb\x08\x10'
tRp3274
g12
(g13
g14
(dtRp3275
sg10
(S'\x07\xdb\x05\x07'
tRp3276
g12
(g13
g14
(dtRp3277
sg10
(S'\x07\xdb\x06\x1a'
tRp3278
g12
(g13
g14
(dtRp3279
sg10
(S'\x07\xdb\x07\x1e'
tRp3280
g12
(g13
g14
(dtRp3281
sg10
(S'\x07\xdb\n\x0c'
tRp3282
g12
(g13
g14
(dtRp3283
sg10
(S'\x07\xdb\x01\x16'
tRp3284
g12
(g13
g14
(dtRp3285
sg10
(S'\x07\xdb\x02\x05'
tRp3286
g12
(g13
g14
(dtRp3287
sg10
(S'\x07\xdb\x04\x1a'
tRp3288
g12
(g13
g14
(dtRp3289
sg10
(S'\x07\xdb\x08\x19'
tRp3290
g12
(g13
g14
(dtRp3291
sg10
(S'\x07\xdb\x05\x1e'
tRp3292
g12
(g13
g14
(dtRp3293
sg10
(S'\x07\xdb\x0c\x10'
tRp3294
g12
(g13
g14
(dtRp3295
sg10
(S'\x07\xdb\n\x15'
tRp3296
g12
(g13
g14
(dtRp3297
sg10
(S'\x07\xdb\x03\x18'
tRp3298
g12
(g13
g14
(dtRp3299
sg10
(S'\x07\xdb\x01\x19'
tRp3300
g12
(g13
g14
(dtRp3301
sg10
(S'\x07\xdb\x04\x13'
tRp3302
g12
(g13
g14
(dtRp3303
sg10
(S'\x07\xdb\x05\x19'
tRp3304
g12
(g13
g14
(dtRp3305
sg10
(S'\x07\xdb\x0c\x19'
tRp3306
g12
(g13
g14
(dtRp3307
sg10
(S'\x07\xdb\n\x1e'
tRp3308
g12
(g13
g14
(dtRp3309
sg10
(S'\x07\xdb\x03\x1f'
tRp3310
g12
(g13
g14
(dtRp3311
sg10
(S'\x07\xdb\t\x0f'
tRp3312
g12
(g13
g14
(dtRp3313
sg10
(S'\x07\xdb\x05\x10'
tRp3314
g12
(g13
g14
(dtRp3315
sg10
(S'\x07\xdb\x0c\x1e'
tRp3316
g12
(g13
g14
(dtRp3317
sg10
(S'\x07\xdb\x06\x03'
tRp3318
g12
(g13
g14
(dtRp3319
sg10
(S'\x07\xdb\x03\x16'
tRp3320
g12
(g13
g14
(dtRp3321
sg10
(S'\x07\xdb\t\x06'
tRp3322
g12
(g13
g14
(dtRp3323
sg10
(S'\x07\xdb\x07\x05'
tRp3324
g12
(g13
g14
(dtRp3325
sg10
(S'\x07\xdb\x0b\x06'
tRp3326
g12
(g13
g14
(dtRp3327
sg10
(S'\x07\xdb\x08\x06'
tRp3328
g12
(g13
g14
(dtRp3329
sg10
(S'\x07\xdb\x0c\x07'
tRp3330
g12
(g13
g14
(dtRp3331
sg10
(S'\x07\xdb\x06\x0c'
tRp3332
g12
(g13
g14
(dtRp3333
sg10
(S'\x07\xdb\x03\r'
tRp3334
g12
(g13
g14
(dtRp3335
sg10
(S'\x07\xdb\t\x19'
tRp3336
g12
(g13
g14
(dtRp3337
sg10
(S'\x07\xdb\x07\x0c'
tRp3338
g12
(g13
g14
(dtRp3339
sg10
(S'\x07\xdb\x0b\r'
tRp3340
g12
(g13
g14
(dtRp3341
sg10
(S'\x07\xdb\x02\x17'
tRp3342
g12
(g13
g14
(dtRp3343
sg10
(S'\x07\xdb\x04\x08'
tRp3344
g12
(g13
g14
(dtRp3345
sg10
(S'\x07\xdb\x08\x0f'
tRp3346
g12
(g13
g14
(dtRp3347
sg10
(S'\x07\xdb\x0c\x0c'
tRp3348
g12
(g13
g14
(dtRp3349
sg10
(S'\x07\xdb\x06\x15'
tRp3350
g12
(g13
g14
(dtRp3351
sg10
(S'\x07\xdb\x03\x04'
tRp3352
g12
(g13
g14
(dtRp3353
sg10
(S'\x07\xdb\t\x10'
tRp3354
g12
(g13
g14
(dtRp3355
sg10
(S'\x07\xdb\x07\x0b'
tRp3356
g12
(g13
g14
(dtRp3357
sg10
(S'\x07\xdb\n\x07'
tRp3358
g12
(g13
g14
(dtRp3359
sg10
(S'\x07\xdb\x0b\x14'
tRp3360
g12
(g13
g14
(dtRp3361
sg10
(S'\x07\xdb\x01\x0b'
tRp3362
g12
(g13
g14
(dtRp3363
sg10
(S'\x07\xdb\x02\x08'
tRp3364
g12
(g13
g14
(dtRp3365
sg10
(S'\x07\xdb\x04\x01'
tRp3366
g12
(g13
g14
(dtRp3367
sg10
(S'\x07\xdb\x08\x14'
tRp3368
g12
(g13
g14
(dtRp3369
sg10
(S'\x07\xdb\x05\x0b'
tRp3370
g12
(g13
g14
(dtRp3371
sg10
(S'\x07\xdb\x06\x1e'
tRp3372
g12
(g13
g14
(dtRp3373
sg10
(S'\x07\xdb\x07\x12'
tRp3374
g12
(g13
g14
(dtRp3375
sg10
(S'\x07\xdb\n\x08'
tRp3376
g12
(g13
g14
(dtRp3377
sg10
(S'\x07\xdb\x0b\x1b'
tRp3378
g12
(g13
g14
(dtRp3379
sg10
(S'\x07\xdb\x01\x12'
tRp3380
g12
(g13
g14
(dtRp3381
sg10
(S'\x07\xdb\x02\x01'
tRp3382
g12
(g13
g14
(dtRp3383
sg10
(S'\x07\xdb\x04\x06'
tRp3384
g12
(g13
g14
(dtRp3385
sg10
(S'\x07\xdb\x08\x1d'
tRp3386
g12
(g13
g14
(dtRp3387
sg10
(S'\x07\xdb\x05\x02'
tRp3388
g12
(g13
g14
(dtRp3389
sg10
(S'\x07\xdb\x07\x19'
tRp3390
g12
(g13
g14
(dtRp3391
sg10
(S'\x07\xdb\n\x11'
tRp3392
g12
(g13
g14
(dtRp3393
sg10
(S'\x07\xdb\x01\x15'
tRp3394
g12
(g13
g14
(dtRp3395
sg10
(S'\x07\xdb\x08\x1a'
tRp3396
g12
(g13
g14
(dtRp3397
sg10
(S'\x07\xdb\x05\x1d'
tRp3398
g12
(g13
g14
(dtRp3399
sg10
(S'\x07\xdb\x0c\x15'
tRp3400
g12
(g13
g14
(dtRp3401
sg10
(S'\x07\xdb\n\x1a'
tRp3402
g12
(g13
g14
(dtRp3403
sg10
(S'\x07\xdb\x03\x1b'
tRp3404
g12
(g13
g14
(dtRp3405
sg10
(S'\x07\xdb\t\x0b'
tRp3406
g12
(g13
g14
(dtRp3407
sg10
(S'\x07\xdb\x01\x1c'
tRp3408
g12
(g13
g14
(dtRp3409
sg10
(S'\x07\xdb\x04\x14'
tRp3410
g12
(g13
g14
(dtRp3411
sg10
(S'\x07\xdb\x05\x14'
tRp3412
g12
(g13
g14
(dtRp3413
sg10
(S'\x07\xdb\x0c\x1a'
tRp3414
g12
(g13
g14
(dtRp3415
sg10
(S'\x07\xdb\x06\x07'
tRp3416
g12
(g13
g14
(dtRp3417
sg10
(S'\x07\xdb\x03\x12'
tRp3418
g12
(g13
g14
(dtRp3419
sg10
(S'\x07\xdb\t\x02'
tRp3420
g12
(g13
g14
(dtRp3421
sg10
(S'\x07\xdb\x0b\x02'
tRp3422
g12
(g13
g14
(dtRp3423
sg10
(S'\x07\xdb\x02\x1a'
tRp3424
g12
(g13
g14
(dtRp3425
sg10
(S'\x07\xdb\x0c\x03'
tRp3426
g12
(g13
g14
(dtRp3427
sg10
(S'\x07\xdb\x03\t'
tRp3428
g12
(g13
g14
(dtRp3429
sg10
(S'\x07\xdb\t\x05'
tRp3430
g12
(g13
g14
(dtRp3431
sg10
(S'\x07\xdb\x0b\t'
tRp3432
g12
(g13
g14
(dtRp3433
sg10
(S'\x07\xdb\x02\x13'
tRp3434
g12
(g13
g14
(dtRp3435
sg10
(S'\x07\xdb\x08\x03'
tRp3436
g12
(g13
g14
(dtRp3437
sg10
(S'\x07\xdb\x0c\x08'
tRp3438
g12
(g13
g14
(dtRp3439
sg10
(S'\x07\xdb\x06\t'
tRp3440
g12
(g13
g14
(dtRp3441
sg10
(S'\x07\xdb\t\x1c'
tRp3442
g12
(g13
g14
(dtRp3443
sg10
(S'\x07\xdb\x07\x0f'
tRp3444
g12
(g13
g14
(dtRp3445
sg10
(S'\x07\xdb\n\x03'
tRp3446
g12
(g13
g14
(dp3447
Vhttp
p3448
I2
sVrel=
p3449
I1
sVstop
p3450
I1
sVplease
p3451
I1
sV/a
p3452
I1
sV//en.wikipedia.org/wiki/michael_moritz
p3453
I2
sV''
p3454
I4
sVnofollow
p3455
I1
sVhref=
p3456
I1
stRp3457
sg10
(S'\x07\xdb\x0b\x10'
tRp3458
g12
(g13
g14
(dtRp3459
sg10
(S'\x07\xdb\x01\x07'
tRp3460
g12
(g13
g14
(dp3461
Vplay
p3462
I1
sV's
p3463
I3
sVaround
p3464
I1
sV100.
p3465
I1
sVpermutations
p3466
I1
sV'd
p3467
I1
sVpicasso
p3468
I1
sVyes
p3469
I1
sVcome
p3470
I1
sVrazor
p3471
I1
sVimplies
p3472
I1
sVoccam
p3473
I1
sVwould
p3474
I1
sVthings
p3475
I1
sVcould
p3476
I1
sVfaces
p3477
I1
sVanswer
p3478
I1
sVprobably
p3479
I1
sV1000
p3480
I1
sVsurprised
p3481
I1
sVfirst
p3482
I3
stRp3483
sg10
(S'\x07\xdb\x02\x14'
tRp3484
g12
(g13
g14
(dtRp3485
sg10
(S'\x07\xdb\x04\r'
tRp3486
g12
(g13
g14
(dtRp3487
sg10
(S'\x07\xdb\x08\x08'
tRp3488
g12
(g13
g14
(dtRp3489
sg10
(S'\x07\xdb\x05\x0f'
tRp3490
g12
(g13
g14
(dtRp3491
sg10
(S'\x07\xdb\x06\x12'
tRp3492
g12
(g13
g14
(dtRp3493
sg10
(S'\x07\xdb\x03\x07'
tRp3494
g12
(g13
g14
(dtRp3495
sg10
(S'\x07\xdb\t\x17'
tRp3496
g12
(g13
g14
(dtRp3497
sg10
(S'\x07\xdb\x07\x16'
tRp3498
g12
(g13
g14
(dtRp3499
sg10
(S'\x07\xdb\n\x04'
tRp3500
g12
(g13
g14
(dtRp3501
sg10
(S'\x07\xdb\x0b\x17'
tRp3502
g12
(g13
g14
(dtRp3503
sg10
(S'\x07\xdb\x01\x0e'
tRp3504
g12
(g13
g14
(dtRp3505
sg10
(S'\x07\xdb\x02\r'
tRp3506
g12
(g13
g14
(dtRp3507
sg10
(S'\x07\xdb\x04\x02'
tRp3508
g12
(g13
g14
(dtRp3509
sg10
(S'\x07\xdb\x08\x11'
tRp3510
g12
(g13
g14
(dtRp3511
sg10
(S'\x07\xdb\x05\x06'
tRp3512
g12
(g13
g14
(dtRp3513
sg10
(S'\x07\xdb\x06\x1b'
tRp3514
g12
(g13
g14
(dtRp3515
sg10
(S'\x07\xdb\x07\x1d'
tRp3516
g12
(g13
g14
(dtRp3517
sg10
(S'\x07\xdb\n\r'
tRp3518
g12
(g13
g14
(dtRp3519
sg10
(S'\x07\xdb\x0b\x1e'
tRp3520
g12
(g13
g14
(dtRp3521
sg10
(S'\x07\xdb\x01\x11'
tRp3522
g12
(g13
g14
(dtRp3523
sg10
(S'\x07\xdb\x02\x06'
tRp3524
g12
(g13
g14
(dtRp3525
sg10
(S'\x07\xdb\x04\x1b'
tRp3526
g12
(g13
g14
(dtRp3527
sg10
(S'\x07\xdb\x08\x1e'
tRp3528
g12
(g13
g14
(dtRp3529
sg10
(S'\x07\xdb\x05\x01'
tRp3530
g12
(g13
g14
(dtRp3531
sg10
(S'\x07\xdb\x0c\x11'
tRp3532
g12
(g13
g14
(dtRp3533
sg10
(S'\x07\xdb\n\x16'
tRp3534
g12
(g13
g14
(dtRp3535
sg10
(S'\x07\xdb\x01\x18'
tRp3536
g12
(g13
g14
(dtRp3537
sg10
(S'\x07\xdb\x04\x10'
tRp3538
g12
(g13
g14
(dtRp3539
sg10
(S'\x07\xdb\x05\x18'
tRp3540
g12
(g13
g14
(dtRp3541
sg10
(S'\x07\xdb\x0c\x16'
tRp3542
g12
(g13
g14
(dtRp3543
sg10
(S'\x07\xdb\n\x1f'
tRp3544
g12
(g13
g14
(dtRp3545
sg10
(S'\x07\xdb\x03\x1e'
tRp3546
g12
(g13
g14
(dtRp3547
sg10
(S'\x07\xdb\t\x0e'
tRp3548
g12
(g13
g14
(dtRp3549
sg10
(S'\x07\xdb\x05\x13'
tRp3550
g12
(g13
g14
(dtRp3551
sg10
(S'\x07\xdb\x0c\x1f'
tRp3552
g12
(g13
g14
(dtRp3553
sg10
(S'\x07\xdb\x06\x04'
tRp3554
g12
(g13
g14
(dtRp3555
sg10
(S'\x07\xdb\x03\x15'
tRp3556
g12
(g13
g14
(dtRp3557
sg10
(S'\x07\xdb\t\x01'
tRp3558
g12
(g13
g14
(dtRp3559
sg10
(S'\x07\xdb\x07\x04'
tRp3560
g12
(g13
g14
(dtRp3561
ssbsVbitcoin
p3562
(iTimeSeries
TimeSeries
p3563
(dp3564
g8
(dp3565
g10
(S'\x07\xdb\x0b\x05'
tRp3566
g12
(g13
g14
(dtRp3567
sg10
(S'\x07\xdb\x08\x07'
tRp3568
g12
(g13
g14
(dtRp3569
sg10
(S'\x07\xdb\x0c\x04'
tRp3570
g12
(g13
g14
(dtRp3571
sg10
(S'\x07\xdb\x06\r'
tRp3572
g12
(g13
g14
(dtRp3573
sg10
(S'\x07\xdb\x03\x0c'
tRp3574
g12
(g13
g14
(dtRp3575
sg10
(S'\x07\xdb\t\x18'
tRp3576
g12
(g13
g14
(dtRp3577
sg10
(S'\x07\xdb\x07\x03'
tRp3578
g12
(g13
g14
(dtRp3579
sg10
(S'\x07\xdb\x0b\x0c'
tRp3580
g12
(g13
g14
(dtRp3581
sg10
(S'\x07\xdb\x01\x03'
tRp3582
g12
(g13
g14
(dtRp3583
sg10
(S'\x07\xdb\x02\x10'
tRp3584
g12
(g13
g14
(dtRp3585
sg10
(S'\x07\xdb\x04\t'
tRp3586
g12
(g13
g14
(dtRp3587
sg10
(S'\x07\xdb\x08\x0c'
tRp3588
g12
(g13
g14
(dtRp3589
sg10
(S'\x07\xdb\x0c\r'
tRp3590
g12
(g13
g14
(dtRp3591
sg10
(S'\x07\xdb\x06\x16'
tRp3592
g12
(g13
g14
(dtRp3593
sg10
(S'\x07\xdb\x03\x03'
tRp3594
g12
(g13
g14
(dtRp3595
sg10
(S'\x07\xdb\t\x13'
tRp3596
g12
(g13
g14
(dtRp3597
sg10
(S'\x07\xdb\x07\n'
tRp3598
g12
(g13
g14
(dtRp3599
sg10
(S'\x07\xdb\x0b\x13'
tRp3600
g12
(g13
g14
(dtRp3601
sg10
(S'\x07\xdb\x01\n'
tRp3602
g12
(g13
g14
(dtRp3603
sg10
(S'\x07\xdb\x02\t'
tRp3604
g12
(g13
g14
(dtRp3605
sg10
(S'\x07\xdb\x04\x0e'
tRp3606
g12
(g13
g14
(dtRp3607
sg10
(S'\x07\xdb\x08\x15'
tRp3608
g12
(g13
g14
(dtRp3609
sg10
(S'\x07\xdb\x05\n'
tRp3610
g12
(g13
g14
(dtRp3611
sg10
(S'\x07\xdb\x07\x11'
tRp3612
g12
(g13
g14
(dtRp3613
sg10
(S'\x07\xdb\n\t'
tRp3614
g12
(g13
g14
(dtRp3615
sg10
(S'\x07\xdb\x0b\x1a'
tRp3616
g12
(g13
g14
(dtRp3617
sg10
(S'\x07\xdb\x01\r'
tRp3618
g12
(g13
g14
(dtRp3619
sg10
(S'\x07\xdb\x02\x02'
tRp3620
g12
(g13
g14
(dtRp3621
sg10
(S'\x07\xdb\x04\x07'
tRp3622
g12
(g13
g14
(dtRp3623
sg10
(S'\x07\xdb\x08\x12'
tRp3624
g12
(g13
g14
(dtRp3625
sg10
(S'\x07\xdb\x05\x05'
tRp3626
g12
(g13
g14
(dtRp3627
sg10
(S'\x07\xdb\x06\x18'
tRp3628
g12
(g13
g14
(dtRp3629
sg10
(S'\x07\xdb\x07\x18'
tRp3630
g12
(g13
g14
(dtRp3631
sg10
(S'\x07\xdb\n\x12'
tRp3632
g12
(g13
g14
(dtRp3633
sg10
(S'\x07\xdb\x01\x14'
tRp3634
g12
(g13
g14
(dtRp3635
sg10
(S'\x07\xdb\x04\x1c'
tRp3636
g12
(g13
g14
(dtRp3637
sg10
(S'\x07\xdb\x08\x1b'
tRp3638
g12
(g13
g14
(dtRp3639
sg10
(S'\x07\xdb\x05\x1c'
tRp3640
g12
(g13
g14
(dtRp3641
sg10
(S'\x07\xdb\x0c\x12'
tRp3642
g12
(g13
g14
(dtRp3643
sg10
(S'\x07\xdb\n\x1b'
tRp3644
g12
(g13
g14
(dtRp3645
sg10
(S'\x07\xdb\x03\x1a'
tRp3646
g12
(g13
g14
(dtRp3647
sg10
(S'\x07\xdb\t\n'
tRp3648
g12
(g13
g14
(dtRp3649
sg10
(S'\x07\xdb\x01\x1f'
tRp3650
g12
(g13
g14
(dtRp3651
sg10
(S'\x07\xdb\x04\x15'
tRp3652
g12
(g13
g14
(dtRp3653
sg10
(S'\x07\xdb\x05\x17'
tRp3654
g12
(g13
g14
(dtRp3655
sg10
(S'\x07\xdb\x0c\x1b'
tRp3656
g12
(g13
g14
(dtRp3657
sg10
(S'\x07\xdb\n\x1c'
tRp3658
g12
(g13
g14
(dtRp3659
sg10
(S'\x07\xdb\x03\x11'
tRp3660
g12
(g13
g14
(dtRp3661
sg10
(S'\x07\xdb\t\r'
tRp3662
g12
(g13
g14
(dtRp3663
sg10
(S'\x07\xdb\x0b\x01'
tRp3664
g12
(g13
g14
(dtRp3665
sg10
(S'\x07\xdb\x02\x1b'
tRp3666
g12
(g13
g14
(dtRp3667
sg10
(S'\x07\xdb\x06\x01'
tRp3668
g12
(g13
g14
(dtRp3669
sg10
(S'\x07\xdb\x03\x08'
tRp3670
g12
(g13
g14
(dtRp3671
sg10
(S'\x07\xdb\t\x04'
tRp3672
g12
(g13
g14
(dtRp3673
sg10
(S'\x07\xdb\x07\x07'
tRp3674
g12
(g13
g14
(dtRp3675
sg10
(S'\x07\xdb\x0b\x08'
tRp3676
g12
(g13
g14
(dtRp3677
sg10
(S'\x07\xdb\x02\x1c'
tRp3678
g12
(g13
g14
(dtRp3679
sg10
(S'\x07\xdb\x0c\t'
tRp3680
g12
(g13
g14
(dtRp3681
sg10
(S'\x07\xdb\x06\n'
tRp3682
g12
(g13
g14
(dtRp3683
sg10
(S'\x07\xdb\x03\x0f'
tRp3684
g12
(g13
g14
(dtRp3685
sg10
(S'\x07\xdb\x07\x0e'
tRp3686
g12
(g13
g14
(dtRp3687
sg10
(S'\x07\xdb\x0b\x0f'
tRp3688
g12
(g13
g14
(dtRp3689
sg10
(S'\x07\xdb\x01\x06'
tRp3690
g12
(g13
g14
(dtRp3691
sg10
(S'\x07\xdb\x02\x15'
tRp3692
g12
(g13
g14
(dtRp3693
sg10
(S'\x07\xdb\x04\n'
tRp3694
g12
(g13
g14
(dtRp3695
sg10
(S'\x07\xdb\x08\t'
tRp3696
g12
(g13
g14
(dtRp3697
sg10
(S'\x07\xdb\x05\x0e'
tRp3698
g12
(g13
g14
(dtRp3699
sg10
(S'\x07\xdb\x0c\x0e'
tRp3700
g12
(g13
g14
(dtRp3701
sg10
(S'\x07\xdb\x06\x13'
tRp3702
g12
(g13
g14
(dtRp3703
sg10
(S'\x07\xdb\x03\x06'
tRp3704
g12
(g13
g14
(dtRp3705
sg10
(S'\x07\xdb\t\x16'
tRp3706
g12
(g13
g14
(dtRp3707
sg10
(S'\x07\xdb\x07\x15'
tRp3708
g12
(g13
g14
(dtRp3709
sg10
(S'\x07\xdb\n\x05'
tRp3710
g12
(g13
g14
(dtRp3711
sg10
(S'\x07\xdb\x0b\x16'
tRp3712
g12
(g13
g14
(dtRp3713
sg10
(S'\x07\xdb\x01\t'
tRp3714
g12
(g13
g14
(dtRp3715
sg10
(S'\x07\xdb\x02\x0e'
tRp3716
g12
(g13
g14
(dtRp3717
sg10
(S'\x07\xdb\x04\x03'
tRp3718
g12
(g13
g14
(dtRp3719
sg10
(S'\x07\xdb\x08\x16'
tRp3720
g12
(g13
g14
(dtRp3721
sg10
(S'\x07\xdb\x05\t'
tRp3722
g12
(g13
g14
(dtRp3723
sg10
(S'\x07\xdb\x06\x1c'
tRp3724
g12
(g13
g14
(dtRp3725
sg10
(S'\x07\xdb\x07\x1c'
tRp3726
g12
(g13
g14
(dtRp3727
sg10
(S'\x07\xdb\n\x0e'
tRp3728
g12
(g13
g14
(dtRp3729
sg10
(S'\x07\xdb\x0b\x1d'
tRp3730
g12
(g13
g14
(dtRp3731
sg10
(S'\x07\xdb\x01\x10'
tRp3732
g12
(g13
g14
(dtRp3733
sg10
(S'\x07\xdb\x02\x07'
tRp3734
g12
(g13
g14
(dtRp3735
sg10
(S'\x07\xdb\x04\x18'
tRp3736
g12
(g13
g14
(dtRp3737
sg10
(S'\x07\xdb\x08\x1f'
tRp3738
g12
(g13
g14
(dtRp3739
sg10
(S'\x07\xdb\x07\x1b'
tRp3740
g12
(g13
g14
(dtRp3741
sg10
(S'\x07\xdb\n\x17'
tRp3742
g12
(g13
g14
(dtRp3743
sg10
(S'\x07\xdb\x01\x1b'
tRp3744
g12
(g13
g14
(dtRp3745
sg10
(S'\x07\xdb\x04\x11'
tRp3746
g12
(g13
g14
(dtRp3747
sg10
(S'\x07\xdb\x05\x1b'
tRp3748
g12
(g13
g14
(dtRp3749
sg10
(S'\x07\xdb\x0c\x17'
tRp3750
g12
(g13
g14
(dtRp3751
sg10
(S'\x07\xdb\n\x18'
tRp3752
g12
(g13
g14
(dtRp3753
sg10
(S'\x07\xdb\x03\x1d'
tRp3754
g12
(g13
g14
(dtRp3755
sg10
(S'\x07\xdb\t\t'
tRp3756
g12
(g13
g14
(dtRp3757
sg10
(S'\x07\xdb\x04\x16'
tRp3758
g12
(g13
g14
(dtRp3759
sg10
(S'\x07\xdb\x05\x12'
tRp3760
g12
(g13
g14
(dtRp3761
sg10
(S'\x07\xdb\x0c\x1c'
tRp3762
g12
(g13
g14
(dtRp3763
sg10
(S'\x07\xdb\x06\x05'
tRp3764
g12
(g13
g14
(dtRp3765
sg10
(S'\x07\xdb\x03\x14'
tRp3766
g12
(g13
g14
(dtRp3767
sg10
(S'\x07\xdb\x0b\x04'
tRp3768
g12
(g13
g14
(dtRp3769
sg10
(S'\x07\xdb\x02\x18'
tRp3770
g12
(g13
g14
(dtRp3771
sg10
(S'\x07\xdb\x08\x04'
tRp3772
g12
(g13
g14
(dtRp3773
sg10
(S'\x07\xdb\x0c\x05'
tRp3774
g12
(g13
g14
(dtRp3775
sg10
(S'\x07\xdb\x06\x0e'
tRp3776
g12
(g13
g14
(dtRp3777
sg10
(S'\x07\xdb\x03\x0b'
tRp3778
g12
(g13
g14
(dtRp3779
sg10
(S'\x07\xdb\t\x1b'
tRp3780
g12
(g13
g14
(dtRp3781
sg10
(S'\x07\xdb\x07\x02'
tRp3782
g12
(g13
g14
(dtRp3783
sg10
(S'\x07\xdb\x0b\x0b'
tRp3784
g12
(g13
g14
(dtRp3785
sg10
(S'\x07\xdb\x01\x02'
tRp3786
g12
(g13
g14
(dtRp3787
sg10
(S'\x07\xdb\x02\x11'
tRp3788
g12
(g13
g14
(dtRp3789
sg10
(S'\x07\xdb\x08\r'
tRp3790
g12
(g13
g14
(dtRp3791
sg10
(S'\x07\xdb\x0c\n'
tRp3792
g12
(g13
g14
(dtRp3793
sg10
(S'\x07\xdb\x06\x17'
tRp3794
g12
(g13
g14
(dtRp3795
sg10
(S'\x07\xdb\x03\x02'
tRp3796
g12
(g13
g14
(dtRp3797
sg10
(S'\x07\xdb\t\x12'
tRp3798
g12
(g13
g14
(dtRp3799
sg10
(S'\x07\xdb\x07\t'
tRp3800
g12
(g13
g14
(dtRp3801
sg10
(S'\x07\xdb\n\x01'
tRp3802
g12
(g13
g14
(dtRp3803
sg10
(S'\x07\xdb\x0b\x12'
tRp3804
g12
(g13
g14
(dtRp3805
sg10
(S'\x07\xdb\x01\x05'
tRp3806
g12
(g13
g14
(dtRp3807
sg10
(S'\x07\xdb\x02\n'
tRp3808
g12
(g13
g14
(dtRp3809
sg10
(S'\x07\xdb\x04\x0f'
tRp3810
g12
(g13
g14
(dtRp3811
sg10
(S'\x07\xdb\x08\n'
tRp3812
g12
(g13
g14
(dtRp3813
sg10
(S'\x07\xdb\x05\r'
tRp3814
g12
(g13
g14
(dtRp3815
sg10
(S'\x07\xdb\x06\x10'
tRp3816
g12
(g13
g14
(dtRp3817
sg10
(S'\x07\xdb\t\x15'
tRp3818
g12
(g13
g14
(dtRp3819
sg10
(S'\x07\xdb\x07\x10'
tRp3820
g12
(g13
g14
(dtRp3821
sg10
(S'\x07\xdb\n\n'
tRp3822
g12
(g13
g14
(dtRp3823
sg10
(S'\x07\xdb\x0b\x19'
tRp3824
g12
(g13
g14
(dtRp3825
sg10
(S'\x07\xdb\x01\x0c'
tRp3826
g12
(g13
g14
(dtRp3827
sg10
(S'\x07\xdb\x02\x03'
tRp3828
g12
(g13
g14
(dtRp3829
sg10
(S'\x07\xdb\x04\x04'
tRp3830
g12
(g13
g14
(dtRp3831
sg10
(S'\x07\xdb\x08\x13'
tRp3832
g12
(g13
g14
(dtRp3833
sg10
(S'\x07\xdb\x05\x04'
tRp3834
g12
(g13
g14
(dtRp3835
sg10
(S'\x07\xdb\x06\x19'
tRp3836
g12
(g13
g14
(dtRp3837
sg10
(S'\x07\xdb\x07\x1f'
tRp3838
g12
(g13
g14
(dtRp3839
sg10
(S'\x07\xdb\n\x13'
tRp3840
g12
(g13
g14
(dtRp3841
sg10
(S'\x07\xdb\x01\x17'
tRp3842
g12
(g13
g14
(dtRp3843
sg10
(S'\x07\xdb\x02\x04'
tRp3844
g12
(g13
g14
(dtRp3845
sg10
(S'\x07\xdb\x04\x1d'
tRp3846
g12
(g13
g14
(dtRp3847
sg10
(S'\x07\xdb\x08\x18'
tRp3848
g12
(g13
g14
(dtRp3849
sg10
(S'\x07\xdb\x05\x1f'
tRp3850
g12
(g13
g14
(dtRp3851
sg10
(S'\x07\xdb\x0c\x13'
tRp3852
g12
(g13
g14
(dtRp3853
sg10
(S'\x07\xdb\n\x14'
tRp3854
g12
(g13
g14
(dtRp3855
sg10
(S'\x07\xdb\x03\x19'
tRp3856
g12
(g13
g14
(dtRp3857
sg10
(S'\x07\xdb\x01\x1e'
tRp3858
g12
(g13
g14
(dtRp3859
sg10
(S'\x07\xdb\x04\x12'
tRp3860
g12
(g13
g14
(dtRp3861
sg10
(S'\x07\xdb\x05\x16'
tRp3862
g12
(g13
g14
(dtRp3863
sg10
(S'\x07\xdb\x0c\x18'
tRp3864
g12
(g13
g14
(dtRp3865
sg10
(S'\x07\xdb\n\x1d'
tRp3866
g12
(g13
g14
(dtRp3867
sg10
(S'\x07\xdb\x03\x10'
tRp3868
g12
(g13
g14
(dtRp3869
sg10
(S'\x07\xdb\t\x0c'
tRp3870
g12
(g13
g14
(dtRp3871
sg10
(S'\x07\xdb\x05\x11'
tRp3872
g12
(g13
g14
(dtRp3873
sg10
(S'\x07\xdb\x0c\x01'
tRp3874
g12
(g13
g14
(dtRp3875
sg10
(S'\x07\xdb\x06\x02'
tRp3876
g12
(g13
g14
(dtRp3877
sg10
(S'\x07\xdb\x03\x17'
tRp3878
g12
(g13
g14
(dtRp3879
sg10
(S'\x07\xdb\t\x07'
tRp3880
g12
(g13
g14
(dtRp3881
sg10
(S'\x07\xdb\x07\x06'
tRp3882
g12
(g13
g14
(dtRp3883
sg10
(S'\x07\xdb\x0b\x07'
tRp3884
g12
(g13
g14
(dtRp3885
sg10
(S'\x07\xdb\x08\x01'
tRp3886
g12
(g13
g14
(dtRp3887
sg10
(S'\x07\xdb\x0c\x06'
tRp3888
g12
(g13
g14
(dtRp3889
sg10
(S'\x07\xdb\x06\x0b'
tRp3890
g12
(g13
g14
(dtRp3891
sg10
(S'\x07\xdb\x03\x0e'
tRp3892
g12
(g13
g14
(dtRp3893
sg10
(S'\x07\xdb\t\x1e'
tRp3894
g12
(g13
g14
(dtRp3895
sg10
(S'\x07\xdb\x07\r'
tRp3896
g12
(g13
g14
(dtRp3897
sg10
(S'\x07\xdb\x0b\x0e'
tRp3898
g12
(g13
g14
(dtRp3899
sg578
g12
(g13
g14
(dtRp3900
sg10
(S'\x07\xdb\x02\x16'
tRp3901
g12
(g13
g14
(dtRp3902
sg10
(S'\x07\xdb\x04\x0b'
tRp3903
g12
(g13
g14
(dtRp3904
sg10
(S'\x07\xdb\x08\x0e'
tRp3905
g12
(g13
g14
(dtRp3906
sg10
(S'\x07\xdb\x0c\x0f'
tRp3907
g12
(g13
g14
(dtRp3908
sg10
(S'\x07\xdb\x06\x14'
tRp3909
g12
(g13
g14
(dtRp3910
sg10
(S'\x07\xdb\x03\x05'
tRp3911
g12
(g13
g14
(dtRp3912
sg10
(S'\x07\xdb\t\x11'
tRp3913
g12
(g13
g14
(dtRp3914
sg10
(S'\x07\xdb\x07\x14'
tRp3915
g12
(g13
g14
(dtRp3916
sg10
(S'\x07\xdb\n\x06'
tRp3917
g12
(g13
g14
(dtRp3918
sg10
(S'\x07\xdb\x0b\x15'
tRp3919
g12
(g13
g14
(dtRp3920
sg10
(S'\x07\xdb\x01\x08'
tRp3921
g12
(g13
g14
(dtRp3922
sg10
(S'\x07\xdb\x02\x0f'
tRp3923
g12
(g13
g14
(dtRp3924
sg10
(S'\x07\xdb\x08\x17'
tRp3925
g12
(g13
g14
(dtRp3926
sg10
(S'\x07\xdb\x05\x08'
tRp3927
g12
(g13
g14
(dtRp3928
sg10
(S'\x07\xdb\x06\x1d'
tRp3929
g12
(g13
g14
(dtRp3930
sg10
(S'\x07\xdb\x07\x13'
tRp3931
g12
(g13
g14
(dtRp3932
sg10
(S'\x07\xdb\n\x0f'
tRp3933
g12
(g13
g14
(dtRp3934
sg10
(S'\x07\xdb\x0b\x1c'
tRp3935
g12
(g13
g14
(dtRp3936
sg10
(S'\x07\xdb\x01\x13'
tRp3937
g12
(g13
g14
(dtRp3938
sg10
(S'\x07\xdb\x04\x19'
tRp3939
g12
(g13
g14
(dtRp3940
sg10
(S'\x07\xdb\x08\x1c'
tRp3941
g12
(g13
g14
(dtRp3942
sg10
(S'\x07\xdb\x05\x03'
tRp3943
g12
(g13
g14
(dtRp3944
sg10
(S'\x07\xdb\x07\x1a'
tRp3945
g12
(g13
g14
(dtRp3946
sg10
(S'\x07\xdb\n\x10'
tRp3947
g12
(g13
g14
(dtRp3948
sg10
(S'\x07\xdb\x01\x1a'
tRp3949
g12
(g13
g14
(dtRp3950
sg10
(S'\x07\xdb\x04\x1e'
tRp3951
g12
(g13
g14
(dtRp3952
sg10
(S'\x07\xdb\x05\x1a'
tRp3953
g12
(g13
g14
(dtRp3954
sg10
(S'\x07\xdb\x0c\x14'
tRp3955
g12
(g13
g14
(dtRp3956
sg10
(S'\x07\xdb\n\x19'
tRp3957
g12
(g13
g14
(dtRp3958
sg10
(S'\x07\xdb\x03\x1c'
tRp3959
g12
(g13
g14
(dtRp3960
sg10
(S'\x07\xdb\t\x08'
tRp3961
g12
(g13
g14
(dtRp3962
sg10
(S'\x07\xdb\x01\x1d'
tRp3963
g12
(g13
g14
(dtRp3964
sg10
(S'\x07\xdb\x04\x17'
tRp3965
g12
(g13
g14
(dtRp3966
sg10
(S'\x07\xdb\x05\x15'
tRp3967
g12
(g13
g14
(dtRp3968
sg10
(S'\x07\xdb\x0c\x1d'
tRp3969
g12
(g13
g14
(dtRp3970
sg10
(S'\x07\xdb\x06\x06'
tRp3971
g12
(g13
g14
(dtRp3972
sg10
(S'\x07\xdb\x03\x13'
tRp3973
g12
(g13
g14
(dtRp3974
sg10
(S'\x07\xdb\t\x03'
tRp3975
g12
(g13
g14
(dtRp3976
sg10
(S'\x07\xdb\x0b\x03'
tRp3977
g12
(g13
g14
(dtRp3978
sg10
(S'\x07\xdb\x02\x19'
tRp3979
g12
(g13
g14
(dtRp3980
sg10
(S'\x07\xdb\x08\x05'
tRp3981
g12
(g13
g14
(dtRp3982
sg10
(S'\x07\xdb\x0c\x02'
tRp3983
g12
(g13
g14
(dtRp3984
sg10
(S'\x07\xdb\x06\x0f'
tRp3985
g12
(g13
g14
(dtRp3986
sg10
(S'\x07\xdb\x03\n'
tRp3987
g12
(g13
g14
(dtRp3988
sg10
(S'\x07\xdb\t\x1a'
tRp3989
g12
(g13
g14
(dtRp3990
sg10
(S'\x07\xdb\x07\x01'
tRp3991
g12
(g13
g14
(dtRp3992
sg10
(S'\x07\xdb\x0b\n'
tRp3993
g12
(g13
g14
(dtRp3994
sg10
(S'\x07\xdb\x02\x12'
tRp3995
g12
(g13
g14
(dtRp3996
sg10
(S'\x07\xdb\x08\x02'
tRp3997
g12
(g13
g14
(dtRp3998
sg10
(S'\x07\xdb\x0c\x0b'
tRp3999
g12
(g13
g14
(dtRp4000
sg10
(S'\x07\xdb\x06\x08'
tRp4001
g12
(g13
g14
(dtRp4002
sg10
(S'\x07\xdb\x03\x01'
tRp4003
g12
(g13
g14
(dtRp4004
sg10
(S'\x07\xdb\t\x1d'
tRp4005
g12
(g13
g14
(dtRp4006
sg10
(S'\x07\xdb\x07\x08'
tRp4007
g12
(g13
g14
(dtRp4008
sg10
(S'\x07\xdb\n\x02'
tRp4009
g12
(g13
g14
(dtRp4010
sg10
(S'\x07\xdb\x0b\x11'
tRp4011
g12
(g13
g14
(dtRp4012
sg10
(S'\x07\xdb\x01\x04'
tRp4013
g12
(g13
g14
(dtRp4014
sg10
(S'\x07\xdb\x02\x0b'
tRp4015
g12
(g13
g14
(dtRp4016
sg10
(S'\x07\xdb\x04\x0c'
tRp4017
g12
(g13
g14
(dtRp4018
sg10
(S'\x07\xdb\x08\x0b'
tRp4019
g12
(g13
g14
(dtRp4020
sg10
(S'\x07\xdb\x05\x0c'
tRp4021
g12
(g13
g14
(dtRp4022
sg10
(S'\x07\xdb\x06\x11'
tRp4023
g12
(g13
g14
(dtRp4024
sg10
(S'\x07\xdb\t\x14'
tRp4025
g12
(g13
g14
(dtRp4026
sg10
(S'\x07\xdb\x07\x17'
tRp4027
g12
(g13
g14
(dtRp4028
sg10
(S'\x07\xdb\n\x0b'
tRp4029
g12
(g13
g14
(dtRp4030
sg10
(S'\x07\xdb\x0b\x18'
tRp4031
g12
(g13
g14
(dtRp4032
sg10
(S'\x07\xdb\x01\x0f'
tRp4033
g12
(g13
g14
(dtRp4034
sg10
(S'\x07\xdb\x02\x0c'
tRp4035
g12
(g13
g14
(dtRp4036
sg10
(S'\x07\xdb\x04\x05'
tRp4037
g12
(g13
g14
(dtRp4038
sg10
(S'\x07\xdb\x08\x10'
tRp4039
g12
(g13
g14
(dtRp4040
sg10
(S'\x07\xdb\x05\x07'
tRp4041
g12
(g13
g14
(dtRp4042
sg10
(S'\x07\xdb\x06\x1a'
tRp4043
g12
(g13
g14
(dtRp4044
sg10
(S'\x07\xdb\x07\x1e'
tRp4045
g12
(g13
g14
(dtRp4046
sg10
(S'\x07\xdb\n\x0c'
tRp4047
g12
(g13
g14
(dtRp4048
sg10
(S'\x07\xdb\x01\x16'
tRp4049
g12
(g13
g14
(dtRp4050
sg10
(S'\x07\xdb\x02\x05'
tRp4051
g12
(g13
g14
(dtRp4052
sg10
(S'\x07\xdb\x04\x1a'
tRp4053
g12
(g13
g14
(dtRp4054
sg10
(S'\x07\xdb\x08\x19'
tRp4055
g12
(g13
g14
(dtRp4056
sg10
(S'\x07\xdb\x05\x1e'
tRp4057
g12
(g13
g14
(dtRp4058
sg10
(S'\x07\xdb\x0c\x10'
tRp4059
g12
(g13
g14
(dtRp4060
sg10
(S'\x07\xdb\n\x15'
tRp4061
g12
(g13
g14
(dtRp4062
sg10
(S'\x07\xdb\x03\x18'
tRp4063
g12
(g13
g14
(dtRp4064
sg10
(S'\x07\xdb\x01\x19'
tRp4065
g12
(g13
g14
(dtRp4066
sg10
(S'\x07\xdb\x04\x13'
tRp4067
g12
(g13
g14
(dtRp4068
sg10
(S'\x07\xdb\x05\x19'
tRp4069
g12
(g13
g14
(dtRp4070
sg10
(S'\x07\xdb\x0c\x19'
tRp4071
g12
(g13
g14
(dtRp4072
sg10
(S'\x07\xdb\n\x1e'
tRp4073
g12
(g13
g14
(dtRp4074
sg10
(S'\x07\xdb\x03\x1f'
tRp4075
g12
(g13
g14
(dtRp4076
sg10
(S'\x07\xdb\t\x0f'
tRp4077
g12
(g13
g14
(dtRp4078
sg10
(S'\x07\xdb\x05\x10'
tRp4079
g12
(g13
g14
(dtRp4080
sg10
(S'\x07\xdb\x0c\x1e'
tRp4081
g12
(g13
g14
(dtRp4082
sg10
(S'\x07\xdb\x06\x03'
tRp4083
g12
(g13
g14
(dtRp4084
sg10
(S'\x07\xdb\x03\x16'
tRp4085
g12
(g13
g14
(dtRp4086
sg10
(S'\x07\xdb\t\x06'
tRp4087
g12
(g13
g14
(dtRp4088
sg10
(S'\x07\xdb\x07\x05'
tRp4089
g12
(g13
g14
(dtRp4090
sg10
(S'\x07\xdb\x0b\x06'
tRp4091
g12
(g13
g14
(dtRp4092
sg10
(S'\x07\xdb\x08\x06'
tRp4093
g12
(g13
g14
(dtRp4094
sg10
(S'\x07\xdb\x0c\x07'
tRp4095
g12
(g13
g14
(dtRp4096
sg10
(S'\x07\xdb\x06\x0c'
tRp4097
g12
(g13
g14
(dtRp4098
sg10
(S'\x07\xdb\x03\r'
tRp4099
g12
(g13
g14
(dtRp4100
sg10
(S'\x07\xdb\t\x19'
tRp4101
g12
(g13
g14
(dtRp4102
sg10
(S'\x07\xdb\x07\x0c'
tRp4103
g12
(g13
g14
(dtRp4104
sg10
(S'\x07\xdb\x0b\r'
tRp4105
g12
(g13
g14
(dtRp4106
sg10
(S'\x07\xdb\x02\x17'
tRp4107
g12
(g13
g14
(dtRp4108
sg10
(S'\x07\xdb\x04\x08'
tRp4109
g12
(g13
g14
(dtRp4110
sg10
(S'\x07\xdb\x08\x0f'
tRp4111
g12
(g13
g14
(dtRp4112
sg10
(S'\x07\xdb\x0c\x0c'
tRp4113
g12
(g13
g14
(dtRp4114
sg10
(S'\x07\xdb\x06\x15'
tRp4115
g12
(g13
g14
(dtRp4116
sg10
(S'\x07\xdb\x03\x04'
tRp4117
g12
(g13
g14
(dtRp4118
sg10
(S'\x07\xdb\t\x10'
tRp4119
g12
(g13
g14
(dtRp4120
sg10
(S'\x07\xdb\x07\x0b'
tRp4121
g12
(g13
g14
(dtRp4122
sg10
(S'\x07\xdb\n\x07'
tRp4123
g12
(g13
g14
(dtRp4124
sg10
(S'\x07\xdb\x0b\x14'
tRp4125
g12
(g13
g14
(dtRp4126
sg10
(S'\x07\xdb\x01\x0b'
tRp4127
g12
(g13
g14
(dtRp4128
sg10
(S'\x07\xdb\x02\x08'
tRp4129
g12
(g13
g14
(dtRp4130
sg10
(S'\x07\xdb\x04\x01'
tRp4131
g12
(g13
g14
(dtRp4132
sg10
(S'\x07\xdb\x08\x14'
tRp4133
g12
(g13
g14
(dtRp4134
sg10
(S'\x07\xdb\x05\x0b'
tRp4135
g12
(g13
g14
(dtRp4136
sg10
(S'\x07\xdb\x06\x1e'
tRp4137
g12
(g13
g14
(dtRp4138
sg10
(S'\x07\xdb\x07\x12'
tRp4139
g12
(g13
g14
(dtRp4140
sg10
(S'\x07\xdb\n\x08'
tRp4141
g12
(g13
g14
(dtRp4142
sg10
(S'\x07\xdb\x0b\x1b'
tRp4143
g12
(g13
g14
(dtRp4144
sg10
(S'\x07\xdb\x01\x12'
tRp4145
g12
(g13
g14
(dtRp4146
sg10
(S'\x07\xdb\x02\x01'
tRp4147
g12
(g13
g14
(dtRp4148
sg10
(S'\x07\xdb\x04\x06'
tRp4149
g12
(g13
g14
(dtRp4150
sg10
(S'\x07\xdb\x08\x1d'
tRp4151
g12
(g13
g14
(dtRp4152
sg10
(S'\x07\xdb\x05\x02'
tRp4153
g12
(g13
g14
(dtRp4154
sg10
(S'\x07\xdb\x07\x19'
tRp4155
g12
(g13
g14
(dtRp4156
sg10
(S'\x07\xdb\n\x11'
tRp4157
g12
(g13
g14
(dtRp4158
sg10
(S'\x07\xdb\x01\x15'
tRp4159
g12
(g13
g14
(dtRp4160
sg10
(S'\x07\xdb\x08\x1a'
tRp4161
g12
(g13
g14
(dtRp4162
sg10
(S'\x07\xdb\x05\x1d'
tRp4163
g12
(g13
g14
(dtRp4164
sg10
(S'\x07\xdb\x0c\x15'
tRp4165
g12
(g13
g14
(dtRp4166
sg10
(S'\x07\xdb\n\x1a'
tRp4167
g12
(g13
g14
(dtRp4168
sg10
(S'\x07\xdb\x03\x1b'
tRp4169
g12
(g13
g14
(dtRp4170
sg10
(S'\x07\xdb\t\x0b'
tRp4171
g12
(g13
g14
(dtRp4172
sg10
(S'\x07\xdb\x01\x1c'
tRp4173
g12
(g13
g14
(dtRp4174
sg10
(S'\x07\xdb\x04\x14'
tRp4175
g12
(g13
g14
(dtRp4176
sg10
(S'\x07\xdb\x05\x14'
tRp4177
g12
(g13
g14
(dtRp4178
sg10
(S'\x07\xdb\x0c\x1a'
tRp4179
g12
(g13
g14
(dtRp4180
sg10
(S'\x07\xdb\x06\x07'
tRp4181
g12
(g13
g14
(dtRp4182
sg10
(S'\x07\xdb\x03\x12'
tRp4183
g12
(g13
g14
(dtRp4184
sg10
(S'\x07\xdb\t\x02'
tRp4185
g12
(g13
g14
(dtRp4186
sg10
(S'\x07\xdb\x0b\x02'
tRp4187
g12
(g13
g14
(dtRp4188
sg10
(S'\x07\xdb\x02\x1a'
tRp4189
g12
(g13
g14
(dtRp4190
sg10
(S'\x07\xdb\x0c\x03'
tRp4191
g12
(g13
g14
(dtRp4192
sg10
(S'\x07\xdb\x03\t'
tRp4193
g12
(g13
g14
(dtRp4194
sg10
(S'\x07\xdb\t\x05'
tRp4195
g12
(g13
g14
(dtRp4196
sg10
(S'\x07\xdb\x0b\t'
tRp4197
g12
(g13
g14
(dtRp4198
sg10
(S'\x07\xdb\x02\x13'
tRp4199
g12
(g13
g14
(dtRp4200
sg10
(S'\x07\xdb\x08\x03'
tRp4201
g12
(g13
g14
(dtRp4202
sg10
(S'\x07\xdb\x0c\x08'
tRp4203
g12
(g13
g14
(dtRp4204
sg10
(S'\x07\xdb\x06\t'
tRp4205
g12
(g13
g14
(dtRp4206
sg10
(S'\x07\xdb\t\x1c'
tRp4207
g12
(g13
g14
(dtRp4208
sg10
(S'\x07\xdb\x07\x0f'
tRp4209
g12
(g13
g14
(dtRp4210
sg10
(S'\x07\xdb\n\x03'
tRp4211
g12
(g13
g14
(dtRp4212
sg10
(S'\x07\xdb\x0b\x10'
tRp4213
g12
(g13
g14
(dtRp4214
sg10
(S'\x07\xdb\x01\x07'
tRp4215
g12
(g13
g14
(dtRp4216
sg10
(S'\x07\xdb\x02\x14'
tRp4217
g12
(g13
g14
(dtRp4218
sg10
(S'\x07\xdb\x04\r'
tRp4219
g12
(g13
g14
(dtRp4220
sg10
(S'\x07\xdb\x08\x08'
tRp4221
g12
(g13
g14
(dtRp4222
sg10
(S'\x07\xdb\x05\x0f'
tRp4223
g12
(g13
g14
(dtRp4224
sg10
(S'\x07\xdb\x06\x12'
tRp4225
g12
(g13
g14
(dtRp4226
sg10
(S'\x07\xdb\x03\x07'
tRp4227
g12
(g13
g14
(dtRp4228
sg10
(S'\x07\xdb\t\x17'
tRp4229
g12
(g13
g14
(dtRp4230
sg10
(S'\x07\xdb\x07\x16'
tRp4231
g12
(g13
g14
(dtRp4232
sg10
(S'\x07\xdb\n\x04'
tRp4233
g12
(g13
g14
(dtRp4234
sg10
(S'\x07\xdb\x0b\x17'
tRp4235
g12
(g13
g14
(dtRp4236
sg10
(S'\x07\xdb\x01\x0e'
tRp4237
g12
(g13
g14
(dtRp4238
sg10
(S'\x07\xdb\x02\r'
tRp4239
g12
(g13
g14
(dtRp4240
sg10
(S'\x07\xdb\x04\x02'
tRp4241
g12
(g13
g14
(dtRp4242
sg10
(S'\x07\xdb\x08\x11'
tRp4243
g12
(g13
g14
(dtRp4244
sg10
(S'\x07\xdb\x05\x06'
tRp4245
g12
(g13
g14
(dtRp4246
sg10
(S'\x07\xdb\x06\x1b'
tRp4247
g12
(g13
g14
(dtRp4248
sg10
(S'\x07\xdb\x07\x1d'
tRp4249
g12
(g13
g14
(dtRp4250
sg10
(S'\x07\xdb\n\r'
tRp4251
g12
(g13
g14
(dtRp4252
sg10
(S'\x07\xdb\x0b\x1e'
tRp4253
g12
(g13
g14
(dtRp4254
sg10
(S'\x07\xdb\x01\x11'
tRp4255
g12
(g13
g14
(dtRp4256
sg10
(S'\x07\xdb\x02\x06'
tRp4257
g12
(g13
g14
(dtRp4258
sg10
(S'\x07\xdb\x04\x1b'
tRp4259
g12
(g13
g14
(dtRp4260
sg10
(S'\x07\xdb\x08\x1e'
tRp4261
g12
(g13
g14
(dtRp4262
sg10
(S'\x07\xdb\x05\x01'
tRp4263
g12
(g13
g14
(dtRp4264
sg10
(S'\x07\xdb\x0c\x11'
tRp4265
g12
(g13
g14
(dtRp4266
sg10
(S'\x07\xdb\n\x16'
tRp4267
g12
(g13
g14
(dtRp4268
sg10
(S'\x07\xdb\x01\x18'
tRp4269
g12
(g13
g14
(dtRp4270
sg10
(S'\x07\xdb\x04\x10'
tRp4271
g12
(g13
g14
(dtRp4272
sg10
(S'\x07\xdb\x05\x18'
tRp4273
g12
(g13
g14
(dtRp4274
sg10
(S'\x07\xdb\x0c\x16'
tRp4275
g12
(g13
g14
(dtRp4276
sg10
(S'\x07\xdb\n\x1f'
tRp4277
g12
(g13
g14
(dtRp4278
sg10
(S'\x07\xdb\x03\x1e'
tRp4279
g12
(g13
g14
(dtRp4280
sg10
(S'\x07\xdb\t\x0e'
tRp4281
g12
(g13
g14
(dtRp4282
sg10
(S'\x07\xdb\x05\x13'
tRp4283
g12
(g13
g14
(dtRp4284
sg10
(S'\x07\xdb\x0c\x1f'
tRp4285
g12
(g13
g14
(dtRp4286
sg10
(S'\x07\xdb\x06\x04'
tRp4287
g12
(g13
g14
(dtRp4288
sg10
(S'\x07\xdb\x03\x15'
tRp4289
g12
(g13
g14
(dtRp4290
sg10
(S'\x07\xdb\t\x01'
tRp4291
g12
(g13
g14
(dtRp4292
sg10
(S'\x07\xdb\x07\x04'
tRp4293
g12
(g13
g14
(dtRp4294
ssbsVdell
p4295
(iTimeSeries
TimeSeries
p4296
(dp4297
g8
(dp4298
g10
(S'\x07\xdb\x0b\x05'
tRp4299
g12
(g13
g14
(dtRp4300
sg10
(S'\x07\xdb\x08\x07'
tRp4301
g12
(g13
g14
(dtRp4302
sg10
(S'\x07\xdb\x0c\x04'
tRp4303
g12
(g13
g14
(dtRp4304
sg10
(S'\x07\xdb\x06\r'
tRp4305
g12
(g13
g14
(dtRp4306
sg10
(S'\x07\xdb\x03\x0c'
tRp4307
g12
(g13
g14
(dtRp4308
sg10
(S'\x07\xdb\t\x18'
tRp4309
g12
(g13
g14
(dtRp4310
sg10
(S'\x07\xdb\x07\x03'
tRp4311
g12
(g13
g14
(dtRp4312
sg10
(S'\x07\xdb\x0b\x0c'
tRp4313
g12
(g13
g14
(dtRp4314
sg10
(S'\x07\xdb\x01\x03'
tRp4315
g12
(g13
g14
(dtRp4316
sg10
(S'\x07\xdb\x02\x10'
tRp4317
g12
(g13
g14
(dtRp4318
sg10
(S'\x07\xdb\x04\t'
tRp4319
g12
(g13
g14
(dtRp4320
sg10
(S'\x07\xdb\x08\x0c'
tRp4321
g12
(g13
g14
(dtRp4322
sg10
(S'\x07\xdb\x0c\r'
tRp4323
g12
(g13
g14
(dtRp4324
sg10
(S'\x07\xdb\x06\x16'
tRp4325
g12
(g13
g14
(dtRp4326
sg10
(S'\x07\xdb\x03\x03'
tRp4327
g12
(g13
g14
(dtRp4328
sg10
(S'\x07\xdb\t\x13'
tRp4329
g12
(g13
g14
(dtRp4330
sg10
(S'\x07\xdb\x07\n'
tRp4331
g12
(g13
g14
(dtRp4332
sg10
(S'\x07\xdb\x0b\x13'
tRp4333
g12
(g13
g14
(dtRp4334
sg10
(S'\x07\xdb\x01\n'
tRp4335
g12
(g13
g14
(dtRp4336
sg10
(S'\x07\xdb\x02\t'
tRp4337
g12
(g13
g14
(dtRp4338
sg10
(S'\x07\xdb\x04\x0e'
tRp4339
g12
(g13
g14
(dtRp4340
sg10
(S'\x07\xdb\x08\x15'
tRp4341
g12
(g13
g14
(dtRp4342
sg10
(S'\x07\xdb\x05\n'
tRp4343
g12
(g13
g14
(dtRp4344
sg10
(S'\x07\xdb\x07\x11'
tRp4345
g12
(g13
g14
(dtRp4346
sg10
(S'\x07\xdb\n\t'
tRp4347
g12
(g13
g14
(dtRp4348
sg10
(S'\x07\xdb\x0b\x1a'
tRp4349
g12
(g13
g14
(dtRp4350
sg10
(S'\x07\xdb\x01\r'
tRp4351
g12
(g13
g14
(dtRp4352
sg10
(S'\x07\xdb\x02\x02'
tRp4353
g12
(g13
g14
(dtRp4354
sg10
(S'\x07\xdb\x04\x07'
tRp4355
g12
(g13
g14
(dtRp4356
sg10
(S'\x07\xdb\x08\x12'
tRp4357
g12
(g13
g14
(dtRp4358
sg10
(S'\x07\xdb\x05\x05'
tRp4359
g12
(g13
g14
(dtRp4360
sg10
(S'\x07\xdb\x06\x18'
tRp4361
g12
(g13
g14
(dtRp4362
sg10
(S'\x07\xdb\x07\x18'
tRp4363
g12
(g13
g14
(dtRp4364
sg10
(S'\x07\xdb\n\x12'
tRp4365
g12
(g13
g14
(dtRp4366
sg10
(S'\x07\xdb\x01\x14'
tRp4367
g12
(g13
g14
(dtRp4368
sg10
(S'\x07\xdb\x04\x1c'
tRp4369
g12
(g13
g14
(dtRp4370
sg10
(S'\x07\xdb\x08\x1b'
tRp4371
g12
(g13
g14
(dtRp4372
sg10
(S'\x07\xdb\x05\x1c'
tRp4373
g12
(g13
g14
(dtRp4374
sg10
(S'\x07\xdb\x0c\x12'
tRp4375
g12
(g13
g14
(dtRp4376
sg10
(S'\x07\xdb\n\x1b'
tRp4377
g12
(g13
g14
(dtRp4378
sg10
(S'\x07\xdb\x03\x1a'
tRp4379
g12
(g13
g14
(dtRp4380
sg10
(S'\x07\xdb\t\n'
tRp4381
g12
(g13
g14
(dtRp4382
sg10
(S'\x07\xdb\x01\x1f'
tRp4383
g12
(g13
g14
(dtRp4384
sg10
(S'\x07\xdb\x04\x15'
tRp4385
g12
(g13
g14
(dtRp4386
sg10
(S'\x07\xdb\x05\x17'
tRp4387
g12
(g13
g14
(dtRp4388
sg10
(S'\x07\xdb\x0c\x1b'
tRp4389
g12
(g13
g14
(dtRp4390
sg10
(S'\x07\xdb\n\x1c'
tRp4391
g12
(g13
g14
(dtRp4392
sg10
(S'\x07\xdb\x03\x11'
tRp4393
g12
(g13
g14
(dtRp4394
sg10
(S'\x07\xdb\t\r'
tRp4395
g12
(g13
g14
(dtRp4396
sg10
(S'\x07\xdb\x0b\x01'
tRp4397
g12
(g13
g14
(dtRp4398
sg10
(S'\x07\xdb\x02\x1b'
tRp4399
g12
(g13
g14
(dtRp4400
sg10
(S'\x07\xdb\x06\x01'
tRp4401
g12
(g13
g14
(dtRp4402
sg10
(S'\x07\xdb\x03\x08'
tRp4403
g12
(g13
g14
(dtRp4404
sg10
(S'\x07\xdb\t\x04'
tRp4405
g12
(g13
g14
(dtRp4406
sg10
(S'\x07\xdb\x07\x07'
tRp4407
g12
(g13
g14
(dtRp4408
sg10
(S'\x07\xdb\x0b\x08'
tRp4409
g12
(g13
g14
(dtRp4410
sg10
(S'\x07\xdb\x02\x1c'
tRp4411
g12
(g13
g14
(dtRp4412
sg10
(S'\x07\xdb\x0c\t'
tRp4413
g12
(g13
g14
(dtRp4414
sg10
(S'\x07\xdb\x06\n'
tRp4415
g12
(g13
g14
(dtRp4416
sg10
(S'\x07\xdb\x03\x0f'
tRp4417
g12
(g13
g14
(dtRp4418
sg10
(S'\x07\xdb\x07\x0e'
tRp4419
g12
(g13
g14
(dtRp4420
sg10
(S'\x07\xdb\x0b\x0f'
tRp4421
g12
(g13
g14
(dtRp4422
sg10
(S'\x07\xdb\x01\x06'
tRp4423
g12
(g13
g14
(dtRp4424
sg10
(S'\x07\xdb\x02\x15'
tRp4425
g12
(g13
g14
(dtRp4426
sg10
(S'\x07\xdb\x04\n'
tRp4427
g12
(g13
g14
(dtRp4428
sg10
(S'\x07\xdb\x08\t'
tRp4429
g12
(g13
g14
(dtRp4430
sg10
(S'\x07\xdb\x05\x0e'
tRp4431
g12
(g13
g14
(dtRp4432
sg10
(S'\x07\xdb\x0c\x0e'
tRp4433
g12
(g13
g14
(dtRp4434
sg10
(S'\x07\xdb\x06\x13'
tRp4435
g12
(g13
g14
(dtRp4436
sg10
(S'\x07\xdb\x03\x06'
tRp4437
g12
(g13
g14
(dtRp4438
sg10
(S'\x07\xdb\t\x16'
tRp4439
g12
(g13
g14
(dtRp4440
sg10
(S'\x07\xdb\x07\x15'
tRp4441
g12
(g13
g14
(dtRp4442
sg10
(S'\x07\xdb\n\x05'
tRp4443
g12
(g13
g14
(dtRp4444
sg10
(S'\x07\xdb\x0b\x16'
tRp4445
g12
(g13
g14
(dtRp4446
sg10
(S'\x07\xdb\x01\t'
tRp4447
g12
(g13
g14
(dtRp4448
sg10
(S'\x07\xdb\x02\x0e'
tRp4449
g12
(g13
g14
(dtRp4450
sg10
(S'\x07\xdb\x04\x03'
tRp4451
g12
(g13
g14
(dtRp4452
sg10
(S'\x07\xdb\x08\x16'
tRp4453
g12
(g13
g14
(dtRp4454
sg10
(S'\x07\xdb\x05\t'
tRp4455
g12
(g13
g14
(dtRp4456
sg10
(S'\x07\xdb\x06\x1c'
tRp4457
g12
(g13
g14
(dtRp4458
sg10
(S'\x07\xdb\x07\x1c'
tRp4459
g12
(g13
g14
(dtRp4460
sg10
(S'\x07\xdb\n\x0e'
tRp4461
g12
(g13
g14
(dtRp4462
sg10
(S'\x07\xdb\x0b\x1d'
tRp4463
g12
(g13
g14
(dtRp4464
sg10
(S'\x07\xdb\x01\x10'
tRp4465
g12
(g13
g14
(dtRp4466
sg10
(S'\x07\xdb\x02\x07'
tRp4467
g12
(g13
g14
(dtRp4468
sg10
(S'\x07\xdb\x04\x18'
tRp4469
g12
(g13
g14
(dtRp4470
sg10
(S'\x07\xdb\x08\x1f'
tRp4471
g12
(g13
g14
(dtRp4472
sg10
(S'\x07\xdb\x07\x1b'
tRp4473
g12
(g13
g14
(dtRp4474
sg10
(S'\x07\xdb\n\x17'
tRp4475
g12
(g13
g14
(dtRp4476
sg10
(S'\x07\xdb\x01\x1b'
tRp4477
g12
(g13
g14
(dtRp4478
sg10
(S'\x07\xdb\x04\x11'
tRp4479
g12
(g13
g14
(dtRp4480
sg10
(S'\x07\xdb\x05\x1b'
tRp4481
g12
(g13
g14
(dtRp4482
sg10
(S'\x07\xdb\x0c\x17'
tRp4483
g12
(g13
g14
(dtRp4484
sg10
(S'\x07\xdb\n\x18'
tRp4485
g12
(g13
g14
(dtRp4486
sg10
(S'\x07\xdb\x03\x1d'
tRp4487
g12
(g13
g14
(dtRp4488
sg10
(S'\x07\xdb\t\t'
tRp4489
g12
(g13
g14
(dtRp4490
sg10
(S'\x07\xdb\x04\x16'
tRp4491
g12
(g13
g14
(dtRp4492
sg10
(S'\x07\xdb\x05\x12'
tRp4493
g12
(g13
g14
(dtRp4494
sg10
(S'\x07\xdb\x0c\x1c'
tRp4495
g12
(g13
g14
(dtRp4496
sg10
(S'\x07\xdb\x06\x05'
tRp4497
g12
(g13
g14
(dtRp4498
sg10
(S'\x07\xdb\x03\x14'
tRp4499
g12
(g13
g14
(dtRp4500
sg10
(S'\x07\xdb\x0b\x04'
tRp4501
g12
(g13
g14
(dtRp4502
sg10
(S'\x07\xdb\x02\x18'
tRp4503
g12
(g13
g14
(dtRp4504
sg10
(S'\x07\xdb\x08\x04'
tRp4505
g12
(g13
g14
(dtRp4506
sg10
(S'\x07\xdb\x0c\x05'
tRp4507
g12
(g13
g14
(dtRp4508
sg10
(S'\x07\xdb\x06\x0e'
tRp4509
g12
(g13
g14
(dtRp4510
sg10
(S'\x07\xdb\x03\x0b'
tRp4511
g12
(g13
g14
(dtRp4512
sg10
(S'\x07\xdb\t\x1b'
tRp4513
g12
(g13
g14
(dtRp4514
sg10
(S'\x07\xdb\x07\x02'
tRp4515
g12
(g13
g14
(dtRp4516
sg10
(S'\x07\xdb\x0b\x0b'
tRp4517
g12
(g13
g14
(dtRp4518
sg10
(S'\x07\xdb\x01\x02'
tRp4519
g12
(g13
g14
(dtRp4520
sg10
(S'\x07\xdb\x02\x11'
tRp4521
g12
(g13
g14
(dtRp4522
sg10
(S'\x07\xdb\x08\r'
tRp4523
g12
(g13
g14
(dtRp4524
sg10
(S'\x07\xdb\x0c\n'
tRp4525
g12
(g13
g14
(dtRp4526
sg10
(S'\x07\xdb\x06\x17'
tRp4527
g12
(g13
g14
(dtRp4528
sg10
(S'\x07\xdb\x03\x02'
tRp4529
g12
(g13
g14
(dtRp4530
sg10
(S'\x07\xdb\t\x12'
tRp4531
g12
(g13
g14
(dtRp4532
sg10
(S'\x07\xdb\x07\t'
tRp4533
g12
(g13
g14
(dtRp4534
sg10
(S'\x07\xdb\n\x01'
tRp4535
g12
(g13
g14
(dtRp4536
sg10
(S'\x07\xdb\x0b\x12'
tRp4537
g12
(g13
g14
(dtRp4538
sg10
(S'\x07\xdb\x01\x05'
tRp4539
g12
(g13
g14
(dtRp4540
sg10
(S'\x07\xdb\x02\n'
tRp4541
g12
(g13
g14
(dtRp4542
sg10
(S'\x07\xdb\x04\x0f'
tRp4543
g12
(g13
g14
(dtRp4544
sg10
(S'\x07\xdb\x08\n'
tRp4545
g12
(g13
g14
(dtRp4546
sg10
(S'\x07\xdb\x05\r'
tRp4547
g12
(g13
g14
(dtRp4548
sg10
(S'\x07\xdb\x06\x10'
tRp4549
g12
(g13
g14
(dtRp4550
sg10
(S'\x07\xdb\t\x15'
tRp4551
g12
(g13
g14
(dtRp4552
sg10
(S'\x07\xdb\x07\x10'
tRp4553
g12
(g13
g14
(dtRp4554
sg10
(S'\x07\xdb\n\n'
tRp4555
g12
(g13
g14
(dtRp4556
sg10
(S'\x07\xdb\x0b\x19'
tRp4557
g12
(g13
g14
(dtRp4558
sg10
(S'\x07\xdb\x01\x0c'
tRp4559
g12
(g13
g14
(dtRp4560
sg10
(S'\x07\xdb\x02\x03'
tRp4561
g12
(g13
g14
(dtRp4562
sg10
(S'\x07\xdb\x04\x04'
tRp4563
g12
(g13
g14
(dtRp4564
sg10
(S'\x07\xdb\x08\x13'
tRp4565
g12
(g13
g14
(dtRp4566
sg10
(S'\x07\xdb\x05\x04'
tRp4567
g12
(g13
g14
(dtRp4568
sg10
(S'\x07\xdb\x06\x19'
tRp4569
g12
(g13
g14
(dtRp4570
sg10
(S'\x07\xdb\x07\x1f'
tRp4571
g12
(g13
g14
(dtRp4572
sg10
(S'\x07\xdb\n\x13'
tRp4573
g12
(g13
g14
(dtRp4574
sg10
(S'\x07\xdb\x01\x17'
tRp4575
g12
(g13
g14
(dtRp4576
sg10
(S'\x07\xdb\x02\x04'
tRp4577
g12
(g13
g14
(dtRp4578
sg10
(S'\x07\xdb\x04\x1d'
tRp4579
g12
(g13
g14
(dtRp4580
sg10
(S'\x07\xdb\x08\x18'
tRp4581
g12
(g13
g14
(dtRp4582
sg10
(S'\x07\xdb\x05\x1f'
tRp4583
g12
(g13
g14
(dtRp4584
sg10
(S'\x07\xdb\x0c\x13'
tRp4585
g12
(g13
g14
(dtRp4586
sg10
(S'\x07\xdb\n\x14'
tRp4587
g12
(g13
g14
(dtRp4588
sg10
(S'\x07\xdb\x03\x19'
tRp4589
g12
(g13
g14
(dtRp4590
sg10
(S'\x07\xdb\x01\x1e'
tRp4591
g12
(g13
g14
(dtRp4592
sg10
(S'\x07\xdb\x04\x12'
tRp4593
g12
(g13
g14
(dtRp4594
sg10
(S'\x07\xdb\x05\x16'
tRp4595
g12
(g13
g14
(dtRp4596
sg10
(S'\x07\xdb\x0c\x18'
tRp4597
g12
(g13
g14
(dtRp4598
sg10
(S'\x07\xdb\n\x1d'
tRp4599
g12
(g13
g14
(dtRp4600
sg10
(S'\x07\xdb\x03\x10'
tRp4601
g12
(g13
g14
(dtRp4602
sg10
(S'\x07\xdb\t\x0c'
tRp4603
g12
(g13
g14
(dtRp4604
sg10
(S'\x07\xdb\x05\x11'
tRp4605
g12
(g13
g14
(dtRp4606
sg10
(S'\x07\xdb\x0c\x01'
tRp4607
g12
(g13
g14
(dtRp4608
sg10
(S'\x07\xdb\x06\x02'
tRp4609
g12
(g13
g14
(dtRp4610
sg10
(S'\x07\xdb\x03\x17'
tRp4611
g12
(g13
g14
(dtRp4612
sg10
(S'\x07\xdb\t\x07'
tRp4613
g12
(g13
g14
(dtRp4614
sg10
(S'\x07\xdb\x07\x06'
tRp4615
g12
(g13
g14
(dtRp4616
sg10
(S'\x07\xdb\x0b\x07'
tRp4617
g12
(g13
g14
(dtRp4618
sg10
(S'\x07\xdb\x08\x01'
tRp4619
g12
(g13
g14
(dtRp4620
sg10
(S'\x07\xdb\x0c\x06'
tRp4621
g12
(g13
g14
(dtRp4622
sg10
(S'\x07\xdb\x06\x0b'
tRp4623
g12
(g13
g14
(dtRp4624
sg10
(S'\x07\xdb\x03\x0e'
tRp4625
g12
(g13
g14
(dtRp4626
sg10
(S'\x07\xdb\t\x1e'
tRp4627
g12
(g13
g14
(dtRp4628
sg10
(S'\x07\xdb\x07\r'
tRp4629
g12
(g13
g14
(dtRp4630
sg10
(S'\x07\xdb\x0b\x0e'
tRp4631
g12
(g13
g14
(dtRp4632
sg578
g12
(g13
g14
(dtRp4633
sg10
(S'\x07\xdb\x02\x16'
tRp4634
g12
(g13
g14
(dtRp4635
sg10
(S'\x07\xdb\x04\x0b'
tRp4636
g12
(g13
g14
(dtRp4637
sg10
(S'\x07\xdb\x08\x0e'
tRp4638
g12
(g13
g14
(dtRp4639
sg10
(S'\x07\xdb\x0c\x0f'
tRp4640
g12
(g13
g14
(dtRp4641
sg10
(S'\x07\xdb\x06\x14'
tRp4642
g12
(g13
g14
(dtRp4643
sg10
(S'\x07\xdb\x03\x05'
tRp4644
g12
(g13
g14
(dtRp4645
sg10
(S'\x07\xdb\t\x11'
tRp4646
g12
(g13
g14
(dtRp4647
sg10
(S'\x07\xdb\x07\x14'
tRp4648
g12
(g13
g14
(dtRp4649
sg10
(S'\x07\xdb\n\x06'
tRp4650
g12
(g13
g14
(dtRp4651
sg10
(S'\x07\xdb\x0b\x15'
tRp4652
g12
(g13
g14
(dtRp4653
sg10
(S'\x07\xdb\x01\x08'
tRp4654
g12
(g13
g14
(dtRp4655
sg10
(S'\x07\xdb\x02\x0f'
tRp4656
g12
(g13
g14
(dtRp4657
sg10
(S'\x07\xdb\x08\x17'
tRp4658
g12
(g13
g14
(dtRp4659
sg10
(S'\x07\xdb\x05\x08'
tRp4660
g12
(g13
g14
(dtRp4661
sg10
(S'\x07\xdb\x06\x1d'
tRp4662
g12
(g13
g14
(dtRp4663
sg10
(S'\x07\xdb\x07\x13'
tRp4664
g12
(g13
g14
(dtRp4665
sg10
(S'\x07\xdb\n\x0f'
tRp4666
g12
(g13
g14
(dtRp4667
sg10
(S'\x07\xdb\x0b\x1c'
tRp4668
g12
(g13
g14
(dtRp4669
sg10
(S'\x07\xdb\x01\x13'
tRp4670
g12
(g13
g14
(dtRp4671
sg10
(S'\x07\xdb\x04\x19'
tRp4672
g12
(g13
g14
(dtRp4673
sg10
(S'\x07\xdb\x08\x1c'
tRp4674
g12
(g13
g14
(dtRp4675
sg10
(S'\x07\xdb\x05\x03'
tRp4676
g12
(g13
g14
(dtRp4677
sg10
(S'\x07\xdb\x07\x1a'
tRp4678
g12
(g13
g14
(dtRp4679
sg10
(S'\x07\xdb\n\x10'
tRp4680
g12
(g13
g14
(dtRp4681
sg10
(S'\x07\xdb\x01\x1a'
tRp4682
g12
(g13
g14
(dtRp4683
sg10
(S'\x07\xdb\x04\x1e'
tRp4684
g12
(g13
g14
(dtRp4685
sg10
(S'\x07\xdb\x05\x1a'
tRp4686
g12
(g13
g14
(dtRp4687
sg10
(S'\x07\xdb\x0c\x14'
tRp4688
g12
(g13
g14
(dtRp4689
sg10
(S'\x07\xdb\n\x19'
tRp4690
g12
(g13
g14
(dtRp4691
sg10
(S'\x07\xdb\x03\x1c'
tRp4692
g12
(g13
g14
(dtRp4693
sg10
(S'\x07\xdb\t\x08'
tRp4694
g12
(g13
g14
(dtRp4695
sg10
(S'\x07\xdb\x01\x1d'
tRp4696
g12
(g13
g14
(dtRp4697
sg10
(S'\x07\xdb\x04\x17'
tRp4698
g12
(g13
g14
(dtRp4699
sg10
(S'\x07\xdb\x05\x15'
tRp4700
g12
(g13
g14
(dtRp4701
sg10
(S'\x07\xdb\x0c\x1d'
tRp4702
g12
(g13
g14
(dtRp4703
sg10
(S'\x07\xdb\x06\x06'
tRp4704
g12
(g13
g14
(dtRp4705
sg10
(S'\x07\xdb\x03\x13'
tRp4706
g12
(g13
g14
(dtRp4707
sg10
(S'\x07\xdb\t\x03'
tRp4708
g12
(g13
g14
(dtRp4709
sg10
(S'\x07\xdb\x0b\x03'
tRp4710
g12
(g13
g14
(dtRp4711
sg10
(S'\x07\xdb\x02\x19'
tRp4712
g12
(g13
g14
(dtRp4713
sg10
(S'\x07\xdb\x08\x05'
tRp4714
g12
(g13
g14
(dtRp4715
sg10
(S'\x07\xdb\x0c\x02'
tRp4716
g12
(g13
g14
(dtRp4717
sg10
(S'\x07\xdb\x06\x0f'
tRp4718
g12
(g13
g14
(dtRp4719
sg10
(S'\x07\xdb\x03\n'
tRp4720
g12
(g13
g14
(dtRp4721
sg10
(S'\x07\xdb\t\x1a'
tRp4722
g12
(g13
g14
(dtRp4723
sg10
(S'\x07\xdb\x07\x01'
tRp4724
g12
(g13
g14
(dtRp4725
sg10
(S'\x07\xdb\x0b\n'
tRp4726
g12
(g13
g14
(dtRp4727
sg10
(S'\x07\xdb\x02\x12'
tRp4728
g12
(g13
g14
(dtRp4729
sg10
(S'\x07\xdb\x08\x02'
tRp4730
g12
(g13
g14
(dtRp4731
sg10
(S'\x07\xdb\x0c\x0b'
tRp4732
g12
(g13
g14
(dtRp4733
sg10
(S'\x07\xdb\x06\x08'
tRp4734
g12
(g13
g14
(dtRp4735
sg10
(S'\x07\xdb\x03\x01'
tRp4736
g12
(g13
g14
(dtRp4737
sg10
(S'\x07\xdb\t\x1d'
tRp4738
g12
(g13
g14
(dtRp4739
sg10
(S'\x07\xdb\x07\x08'
tRp4740
g12
(g13
g14
(dtRp4741
sg10
(S'\x07\xdb\n\x02'
tRp4742
g12
(g13
g14
(dtRp4743
sg10
(S'\x07\xdb\x0b\x11'
tRp4744
g12
(g13
g14
(dtRp4745
sg10
(S'\x07\xdb\x01\x04'
tRp4746
g12
(g13
g14
(dtRp4747
sg10
(S'\x07\xdb\x02\x0b'
tRp4748
g12
(g13
g14
(dtRp4749
sg10
(S'\x07\xdb\x04\x0c'
tRp4750
g12
(g13
g14
(dtRp4751
sg10
(S'\x07\xdb\x08\x0b'
tRp4752
g12
(g13
g14
(dtRp4753
sg10
(S'\x07\xdb\x05\x0c'
tRp4754
g12
(g13
g14
(dtRp4755
sg10
(S'\x07\xdb\x06\x11'
tRp4756
g12
(g13
g14
(dtRp4757
sg10
(S'\x07\xdb\t\x14'
tRp4758
g12
(g13
g14
(dtRp4759
sg10
(S'\x07\xdb\x07\x17'
tRp4760
g12
(g13
g14
(dtRp4761
sg10
(S'\x07\xdb\n\x0b'
tRp4762
g12
(g13
g14
(dtRp4763
sg10
(S'\x07\xdb\x0b\x18'
tRp4764
g12
(g13
g14
(dtRp4765
sg10
(S'\x07\xdb\x01\x0f'
tRp4766
g12
(g13
g14
(dtRp4767
sg10
(S'\x07\xdb\x02\x0c'
tRp4768
g12
(g13
g14
(dtRp4769
sg10
(S'\x07\xdb\x04\x05'
tRp4770
g12
(g13
g14
(dtRp4771
sg10
(S'\x07\xdb\x08\x10'
tRp4772
g12
(g13
g14
(dtRp4773
sg10
(S'\x07\xdb\x05\x07'
tRp4774
g12
(g13
g14
(dtRp4775
sg10
(S'\x07\xdb\x06\x1a'
tRp4776
g12
(g13
g14
(dtRp4777
sg10
(S'\x07\xdb\x07\x1e'
tRp4778
g12
(g13
g14
(dtRp4779
sg10
(S'\x07\xdb\n\x0c'
tRp4780
g12
(g13
g14
(dtRp4781
sg10
(S'\x07\xdb\x01\x16'
tRp4782
g12
(g13
g14
(dtRp4783
sg10
(S'\x07\xdb\x02\x05'
tRp4784
g12
(g13
g14
(dtRp4785
sg10
(S'\x07\xdb\x04\x1a'
tRp4786
g12
(g13
g14
(dtRp4787
sg10
(S'\x07\xdb\x08\x19'
tRp4788
g12
(g13
g14
(dtRp4789
sg10
(S'\x07\xdb\x05\x1e'
tRp4790
g12
(g13
g14
(dtRp4791
sg10
(S'\x07\xdb\x0c\x10'
tRp4792
g12
(g13
g14
(dtRp4793
sg10
(S'\x07\xdb\n\x15'
tRp4794
g12
(g13
g14
(dtRp4795
sg10
(S'\x07\xdb\x03\x18'
tRp4796
g12
(g13
g14
(dtRp4797
sg10
(S'\x07\xdb\x01\x19'
tRp4798
g12
(g13
g14
(dtRp4799
sg10
(S'\x07\xdb\x04\x13'
tRp4800
g12
(g13
g14
(dtRp4801
sg10
(S'\x07\xdb\x05\x19'
tRp4802
g12
(g13
g14
(dtRp4803
sg10
(S'\x07\xdb\x0c\x19'
tRp4804
g12
(g13
g14
(dtRp4805
sg10
(S'\x07\xdb\n\x1e'
tRp4806
g12
(g13
g14
(dtRp4807
sg10
(S'\x07\xdb\x03\x1f'
tRp4808
g12
(g13
g14
(dtRp4809
sg10
(S'\x07\xdb\t\x0f'
tRp4810
g12
(g13
g14
(dtRp4811
sg10
(S'\x07\xdb\x05\x10'
tRp4812
g12
(g13
g14
(dtRp4813
sg10
(S'\x07\xdb\x0c\x1e'
tRp4814
g12
(g13
g14
(dtRp4815
sg10
(S'\x07\xdb\x06\x03'
tRp4816
g12
(g13
g14
(dtRp4817
sg10
(S'\x07\xdb\x03\x16'
tRp4818
g12
(g13
g14
(dtRp4819
sg10
(S'\x07\xdb\t\x06'
tRp4820
g12
(g13
g14
(dtRp4821
sg10
(S'\x07\xdb\x07\x05'
tRp4822
g12
(g13
g14
(dtRp4823
sg10
(S'\x07\xdb\x0b\x06'
tRp4824
g12
(g13
g14
(dtRp4825
sg10
(S'\x07\xdb\x08\x06'
tRp4826
g12
(g13
g14
(dtRp4827
sg10
(S'\x07\xdb\x0c\x07'
tRp4828
g12
(g13
g14
(dtRp4829
sg10
(S'\x07\xdb\x06\x0c'
tRp4830
g12
(g13
g14
(dtRp4831
sg10
(S'\x07\xdb\x03\r'
tRp4832
g12
(g13
g14
(dtRp4833
sg10
(S'\x07\xdb\t\x19'
tRp4834
g12
(g13
g14
(dtRp4835
sg10
(S'\x07\xdb\x07\x0c'
tRp4836
g12
(g13
g14
(dtRp4837
sg10
(S'\x07\xdb\x0b\r'
tRp4838
g12
(g13
g14
(dtRp4839
sg10
(S'\x07\xdb\x02\x17'
tRp4840
g12
(g13
g14
(dtRp4841
sg10
(S'\x07\xdb\x04\x08'
tRp4842
g12
(g13
g14
(dtRp4843
sg10
(S'\x07\xdb\x08\x0f'
tRp4844
g12
(g13
g14
(dtRp4845
sg10
(S'\x07\xdb\x0c\x0c'
tRp4846
g12
(g13
g14
(dtRp4847
sg10
(S'\x07\xdb\x06\x15'
tRp4848
g12
(g13
g14
(dtRp4849
sg10
(S'\x07\xdb\x03\x04'
tRp4850
g12
(g13
g14
(dtRp4851
sg10
(S'\x07\xdb\t\x10'
tRp4852
g12
(g13
g14
(dtRp4853
sg10
(S'\x07\xdb\x07\x0b'
tRp4854
g12
(g13
g14
(dtRp4855
sg10
(S'\x07\xdb\n\x07'
tRp4856
g12
(g13
g14
(dtRp4857
sg10
(S'\x07\xdb\x0b\x14'
tRp4858
g12
(g13
g14
(dtRp4859
sg10
(S'\x07\xdb\x01\x0b'
tRp4860
g12
(g13
g14
(dtRp4861
sg10
(S'\x07\xdb\x02\x08'
tRp4862
g12
(g13
g14
(dtRp4863
sg10
(S'\x07\xdb\x04\x01'
tRp4864
g12
(g13
g14
(dtRp4865
sg10
(S'\x07\xdb\x08\x14'
tRp4866
g12
(g13
g14
(dtRp4867
sg10
(S'\x07\xdb\x05\x0b'
tRp4868
g12
(g13
g14
(dtRp4869
sg10
(S'\x07\xdb\x06\x1e'
tRp4870
g12
(g13
g14
(dtRp4871
sg10
(S'\x07\xdb\x07\x12'
tRp4872
g12
(g13
g14
(dtRp4873
sg10
(S'\x07\xdb\n\x08'
tRp4874
g12
(g13
g14
(dtRp4875
sg10
(S'\x07\xdb\x0b\x1b'
tRp4876
g12
(g13
g14
(dtRp4877
sg10
(S'\x07\xdb\x01\x12'
tRp4878
g12
(g13
g14
(dtRp4879
sg10
(S'\x07\xdb\x02\x01'
tRp4880
g12
(g13
g14
(dtRp4881
sg10
(S'\x07\xdb\x04\x06'
tRp4882
g12
(g13
g14
(dtRp4883
sg10
(S'\x07\xdb\x08\x1d'
tRp4884
g12
(g13
g14
(dtRp4885
sg10
(S'\x07\xdb\x05\x02'
tRp4886
g12
(g13
g14
(dtRp4887
sg10
(S'\x07\xdb\x07\x19'
tRp4888
g12
(g13
g14
(dtRp4889
sg10
(S'\x07\xdb\n\x11'
tRp4890
g12
(g13
g14
(dtRp4891
sg10
(S'\x07\xdb\x01\x15'
tRp4892
g12
(g13
g14
(dtRp4893
sg10
(S'\x07\xdb\x08\x1a'
tRp4894
g12
(g13
g14
(dtRp4895
sg10
(S'\x07\xdb\x05\x1d'
tRp4896
g12
(g13
g14
(dtRp4897
sg10
(S'\x07\xdb\x0c\x15'
tRp4898
g12
(g13
g14
(dtRp4899
sg10
(S'\x07\xdb\n\x1a'
tRp4900
g12
(g13
g14
(dtRp4901
sg10
(S'\x07\xdb\x03\x1b'
tRp4902
g12
(g13
g14
(dtRp4903
sg10
(S'\x07\xdb\t\x0b'
tRp4904
g12
(g13
g14
(dtRp4905
sg10
(S'\x07\xdb\x01\x1c'
tRp4906
g12
(g13
g14
(dtRp4907
sg10
(S'\x07\xdb\x04\x14'
tRp4908
g12
(g13
g14
(dtRp4909
sg10
(S'\x07\xdb\x05\x14'
tRp4910
g12
(g13
g14
(dtRp4911
sg10
(S'\x07\xdb\x0c\x1a'
tRp4912
g12
(g13
g14
(dtRp4913
sg10
(S'\x07\xdb\x06\x07'
tRp4914
g12
(g13
g14
(dtRp4915
sg10
(S'\x07\xdb\x03\x12'
tRp4916
g12
(g13
g14
(dtRp4917
sg10
(S'\x07\xdb\t\x02'
tRp4918
g12
(g13
g14
(dtRp4919
sg10
(S'\x07\xdb\x0b\x02'
tRp4920
g12
(g13
g14
(dtRp4921
sg10
(S'\x07\xdb\x02\x1a'
tRp4922
g12
(g13
g14
(dtRp4923
sg10
(S'\x07\xdb\x0c\x03'
tRp4924
g12
(g13
g14
(dtRp4925
sg10
(S'\x07\xdb\x03\t'
tRp4926
g12
(g13
g14
(dtRp4927
sg10
(S'\x07\xdb\t\x05'
tRp4928
g12
(g13
g14
(dtRp4929
sg10
(S'\x07\xdb\x0b\t'
tRp4930
g12
(g13
g14
(dtRp4931
sg10
(S'\x07\xdb\x02\x13'
tRp4932
g12
(g13
g14
(dtRp4933
sg10
(S'\x07\xdb\x08\x03'
tRp4934
g12
(g13
g14
(dtRp4935
sg10
(S'\x07\xdb\x0c\x08'
tRp4936
g12
(g13
g14
(dtRp4937
sg10
(S'\x07\xdb\x06\t'
tRp4938
g12
(g13
g14
(dtRp4939
sg10
(S'\x07\xdb\t\x1c'
tRp4940
g12
(g13
g14
(dtRp4941
sg10
(S'\x07\xdb\x07\x0f'
tRp4942
g12
(g13
g14
(dtRp4943
sg10
(S'\x07\xdb\n\x03'
tRp4944
g12
(g13
g14
(dtRp4945
sg10
(S'\x07\xdb\x0b\x10'
tRp4946
g12
(g13
g14
(dtRp4947
sg10
(S'\x07\xdb\x01\x07'
tRp4948
g12
(g13
g14
(dtRp4949
sg10
(S'\x07\xdb\x02\x14'
tRp4950
g12
(g13
g14
(dtRp4951
sg10
(S'\x07\xdb\x04\r'
tRp4952
g12
(g13
g14
(dtRp4953
sg10
(S'\x07\xdb\x08\x08'
tRp4954
g12
(g13
g14
(dtRp4955
sg10
(S'\x07\xdb\x05\x0f'
tRp4956
g12
(g13
g14
(dtRp4957
sg10
(S'\x07\xdb\x06\x12'
tRp4958
g12
(g13
g14
(dtRp4959
sg10
(S'\x07\xdb\x03\x07'
tRp4960
g12
(g13
g14
(dtRp4961
sg10
(S'\x07\xdb\t\x17'
tRp4962
g12
(g13
g14
(dtRp4963
sg10
(S'\x07\xdb\x07\x16'
tRp4964
g12
(g13
g14
(dtRp4965
sg10
(S'\x07\xdb\n\x04'
tRp4966
g12
(g13
g14
(dtRp4967
sg10
(S'\x07\xdb\x0b\x17'
tRp4968
g12
(g13
g14
(dtRp4969
sg10
(S'\x07\xdb\x01\x0e'
tRp4970
g12
(g13
g14
(dtRp4971
sg10
(S'\x07\xdb\x02\r'
tRp4972
g12
(g13
g14
(dtRp4973
sg10
(S'\x07\xdb\x04\x02'
tRp4974
g12
(g13
g14
(dtRp4975
sg10
(S'\x07\xdb\x08\x11'
tRp4976
g12
(g13
g14
(dtRp4977
sg10
(S'\x07\xdb\x05\x06'
tRp4978
g12
(g13
g14
(dtRp4979
sg10
(S'\x07\xdb\x06\x1b'
tRp4980
g12
(g13
g14
(dtRp4981
sg10
(S'\x07\xdb\x07\x1d'
tRp4982
g12
(g13
g14
(dtRp4983
sg10
(S'\x07\xdb\n\r'
tRp4984
g12
(g13
g14
(dtRp4985
sg10
(S'\x07\xdb\x0b\x1e'
tRp4986
g12
(g13
g14
(dtRp4987
sg10
(S'\x07\xdb\x01\x11'
tRp4988
g12
(g13
g14
(dtRp4989
sg10
(S'\x07\xdb\x02\x06'
tRp4990
g12
(g13
g14
(dtRp4991
sg10
(S'\x07\xdb\x04\x1b'
tRp4992
g12
(g13
g14
(dtRp4993
sg10
(S'\x07\xdb\x08\x1e'
tRp4994
g12
(g13
g14
(dtRp4995
sg10
(S'\x07\xdb\x05\x01'
tRp4996
g12
(g13
g14
(dtRp4997
sg10
(S'\x07\xdb\x0c\x11'
tRp4998
g12
(g13
g14
(dtRp4999
sg10
(S'\x07\xdb\n\x16'
tRp5000
g12
(g13
g14
(dtRp5001
sg10
(S'\x07\xdb\x01\x18'
tRp5002
g12
(g13
g14
(dtRp5003
sg10
(S'\x07\xdb\x04\x10'
tRp5004
g12
(g13
g14
(dtRp5005
sg10
(S'\x07\xdb\x05\x18'
tRp5006
g12
(g13
g14
(dtRp5007
sg10
(S'\x07\xdb\x0c\x16'
tRp5008
g12
(g13
g14
(dtRp5009
sg10
(S'\x07\xdb\n\x1f'
tRp5010
g12
(g13
g14
(dtRp5011
sg10
(S'\x07\xdb\x03\x1e'
tRp5012
g12
(g13
g14
(dtRp5013
sg10
(S'\x07\xdb\t\x0e'
tRp5014
g12
(g13
g14
(dtRp5015
sg10
(S'\x07\xdb\x05\x13'
tRp5016
g12
(g13
g14
(dtRp5017
sg10
(S'\x07\xdb\x0c\x1f'
tRp5018
g12
(g13
g14
(dtRp5019
sg10
(S'\x07\xdb\x06\x04'
tRp5020
g12
(g13
g14
(dtRp5021
sg10
(S'\x07\xdb\x03\x15'
tRp5022
g12
(g13
g14
(dtRp5023
sg10
(S'\x07\xdb\t\x01'
tRp5024
g12
(g13
g14
(dtRp5025
sg10
(S'\x07\xdb\x07\x04'
tRp5026
g12
(g13
g14
(dtRp5027
ssbsVfb
p5028
(iTimeSeries
TimeSeries
p5029
(dp5030
g8
(dp5031
g10
(S'\x07\xdb\x0b\x05'
tRp5032
g12
(g13
g14
(dtRp5033
sg10
(S'\x07\xdb\x08\x07'
tRp5034
g12
(g13
g14
(dtRp5035
sg10
(S'\x07\xdb\x0c\x04'
tRp5036
g12
(g13
g14
(dtRp5037
sg10
(S'\x07\xdb\x06\r'
tRp5038
g12
(g13
g14
(dtRp5039
sg10
(S'\x07\xdb\x03\x0c'
tRp5040
g12
(g13
g14
(dtRp5041
sg10
(S'\x07\xdb\t\x18'
tRp5042
g12
(g13
g14
(dtRp5043
sg10
(S'\x07\xdb\x07\x03'
tRp5044
g12
(g13
g14
(dtRp5045
sg10
(S'\x07\xdb\x0b\x0c'
tRp5046
g12
(g13
g14
(dtRp5047
sg10
(S'\x07\xdb\x01\x03'
tRp5048
g12
(g13
g14
(dtRp5049
sg10
(S'\x07\xdb\x02\x10'
tRp5050
g12
(g13
g14
(dtRp5051
sg10
(S'\x07\xdb\x04\t'
tRp5052
g12
(g13
g14
(dtRp5053
sg10
(S'\x07\xdb\x08\x0c'
tRp5054
g12
(g13
g14
(dtRp5055
sg10
(S'\x07\xdb\x0c\r'
tRp5056
g12
(g13
g14
(dtRp5057
sg10
(S'\x07\xdb\x06\x16'
tRp5058
g12
(g13
g14
(dtRp5059
sg10
(S'\x07\xdb\x03\x03'
tRp5060
g12
(g13
g14
(dtRp5061
sg10
(S'\x07\xdb\t\x13'
tRp5062
g12
(g13
g14
(dtRp5063
sg10
(S'\x07\xdb\x07\n'
tRp5064
g12
(g13
g14
(dtRp5065
sg10
(S'\x07\xdb\x0b\x13'
tRp5066
g12
(g13
g14
(dtRp5067
sg10
(S'\x07\xdb\x01\n'
tRp5068
g12
(g13
g14
(dtRp5069
sg10
(S'\x07\xdb\x02\t'
tRp5070
g12
(g13
g14
(dtRp5071
sg10
(S'\x07\xdb\x04\x0e'
tRp5072
g12
(g13
g14
(dtRp5073
sg10
(S'\x07\xdb\x08\x15'
tRp5074
g12
(g13
g14
(dtRp5075
sg10
(S'\x07\xdb\x05\n'
tRp5076
g12
(g13
g14
(dtRp5077
sg10
(S'\x07\xdb\x07\x11'
tRp5078
g12
(g13
g14
(dtRp5079
sg10
(S'\x07\xdb\n\t'
tRp5080
g12
(g13
g14
(dtRp5081
sg10
(S'\x07\xdb\x0b\x1a'
tRp5082
g12
(g13
g14
(dtRp5083
sg10
(S'\x07\xdb\x01\r'
tRp5084
g12
(g13
g14
(dtRp5085
sg10
(S'\x07\xdb\x02\x02'
tRp5086
g12
(g13
g14
(dtRp5087
sg10
(S'\x07\xdb\x04\x07'
tRp5088
g12
(g13
g14
(dtRp5089
sg10
(S'\x07\xdb\x08\x12'
tRp5090
g12
(g13
g14
(dtRp5091
sg10
(S'\x07\xdb\x05\x05'
tRp5092
g12
(g13
g14
(dtRp5093
sg10
(S'\x07\xdb\x06\x18'
tRp5094
g12
(g13
g14
(dtRp5095
sg10
(S'\x07\xdb\x07\x18'
tRp5096
g12
(g13
g14
(dtRp5097
sg10
(S'\x07\xdb\n\x12'
tRp5098
g12
(g13
g14
(dtRp5099
sg10
(S'\x07\xdb\x01\x14'
tRp5100
g12
(g13
g14
(dtRp5101
sg10
(S'\x07\xdb\x04\x1c'
tRp5102
g12
(g13
g14
(dtRp5103
sg10
(S'\x07\xdb\x08\x1b'
tRp5104
g12
(g13
g14
(dtRp5105
sg10
(S'\x07\xdb\x05\x1c'
tRp5106
g12
(g13
g14
(dtRp5107
sg10
(S'\x07\xdb\x0c\x12'
tRp5108
g12
(g13
g14
(dtRp5109
sg10
(S'\x07\xdb\n\x1b'
tRp5110
g12
(g13
g14
(dtRp5111
sg10
(S'\x07\xdb\x03\x1a'
tRp5112
g12
(g13
g14
(dtRp5113
sg10
(S'\x07\xdb\t\n'
tRp5114
g12
(g13
g14
(dtRp5115
sg10
(S'\x07\xdb\x01\x1f'
tRp5116
g12
(g13
g14
(dtRp5117
sg10
(S'\x07\xdb\x04\x15'
tRp5118
g12
(g13
g14
(dtRp5119
sg10
(S'\x07\xdb\x05\x17'
tRp5120
g12
(g13
g14
(dtRp5121
sg10
(S'\x07\xdb\x0c\x1b'
tRp5122
g12
(g13
g14
(dtRp5123
sg10
(S'\x07\xdb\n\x1c'
tRp5124
g12
(g13
g14
(dtRp5125
sg10
(S'\x07\xdb\x03\x11'
tRp5126
g12
(g13
g14
(dtRp5127
sg10
(S'\x07\xdb\t\r'
tRp5128
g12
(g13
g14
(dtRp5129
sg10
(S'\x07\xdb\x0b\x01'
tRp5130
g12
(g13
g14
(dtRp5131
sg10
(S'\x07\xdb\x02\x1b'
tRp5132
g12
(g13
g14
(dtRp5133
sg10
(S'\x07\xdb\x06\x01'
tRp5134
g12
(g13
g14
(dtRp5135
sg10
(S'\x07\xdb\x03\x08'
tRp5136
g12
(g13
g14
(dtRp5137
sg10
(S'\x07\xdb\t\x04'
tRp5138
g12
(g13
g14
(dtRp5139
sg10
(S'\x07\xdb\x07\x07'
tRp5140
g12
(g13
g14
(dtRp5141
sg10
(S'\x07\xdb\x0b\x08'
tRp5142
g12
(g13
g14
(dtRp5143
sg10
(S'\x07\xdb\x02\x1c'
tRp5144
g12
(g13
g14
(dtRp5145
sg10
(S'\x07\xdb\x0c\t'
tRp5146
g12
(g13
g14
(dtRp5147
sg10
(S'\x07\xdb\x06\n'
tRp5148
g12
(g13
g14
(dtRp5149
sg10
(S'\x07\xdb\x03\x0f'
tRp5150
g12
(g13
g14
(dtRp5151
sg10
(S'\x07\xdb\x07\x0e'
tRp5152
g12
(g13
g14
(dtRp5153
sg10
(S'\x07\xdb\x0b\x0f'
tRp5154
g12
(g13
g14
(dtRp5155
sg10
(S'\x07\xdb\x01\x06'
tRp5156
g12
(g13
g14
(dtRp5157
sg10
(S'\x07\xdb\x02\x15'
tRp5158
g12
(g13
g14
(dtRp5159
sg10
(S'\x07\xdb\x04\n'
tRp5160
g12
(g13
g14
(dtRp5161
sg10
(S'\x07\xdb\x08\t'
tRp5162
g12
(g13
g14
(dtRp5163
sg10
(S'\x07\xdb\x05\x0e'
tRp5164
g12
(g13
g14
(dtRp5165
sg10
(S'\x07\xdb\x0c\x0e'
tRp5166
g12
(g13
g14
(dtRp5167
sg10
(S'\x07\xdb\x06\x13'
tRp5168
g12
(g13
g14
(dtRp5169
sg10
(S'\x07\xdb\x03\x06'
tRp5170
g12
(g13
g14
(dtRp5171
sg10
(S'\x07\xdb\t\x16'
tRp5172
g12
(g13
g14
(dtRp5173
sg10
(S'\x07\xdb\x07\x15'
tRp5174
g12
(g13
g14
(dtRp5175
sg10
(S'\x07\xdb\n\x05'
tRp5176
g12
(g13
g14
(dtRp5177
sg10
(S'\x07\xdb\x0b\x16'
tRp5178
g12
(g13
g14
(dtRp5179
sg10
(S'\x07\xdb\x01\t'
tRp5180
g12
(g13
g14
(dtRp5181
sg10
(S'\x07\xdb\x02\x0e'
tRp5182
g12
(g13
g14
(dtRp5183
sg10
(S'\x07\xdb\x04\x03'
tRp5184
g12
(g13
g14
(dtRp5185
sg10
(S'\x07\xdb\x08\x16'
tRp5186
g12
(g13
g14
(dtRp5187
sg10
(S'\x07\xdb\x05\t'
tRp5188
g12
(g13
g14
(dtRp5189
sg10
(S'\x07\xdb\x06\x1c'
tRp5190
g12
(g13
g14
(dtRp5191
sg10
(S'\x07\xdb\x07\x1c'
tRp5192
g12
(g13
g14
(dtRp5193
sg10
(S'\x07\xdb\n\x0e'
tRp5194
g12
(g13
g14
(dtRp5195
sg10
(S'\x07\xdb\x0b\x1d'
tRp5196
g12
(g13
g14
(dtRp5197
sg10
(S'\x07\xdb\x01\x10'
tRp5198
g12
(g13
g14
(dtRp5199
sg10
(S'\x07\xdb\x02\x07'
tRp5200
g12
(g13
g14
(dtRp5201
sg10
(S'\x07\xdb\x04\x18'
tRp5202
g12
(g13
g14
(dtRp5203
sg10
(S'\x07\xdb\x08\x1f'
tRp5204
g12
(g13
g14
(dtRp5205
sg10
(S'\x07\xdb\x07\x1b'
tRp5206
g12
(g13
g14
(dtRp5207
sg10
(S'\x07\xdb\n\x17'
tRp5208
g12
(g13
g14
(dtRp5209
sg10
(S'\x07\xdb\x01\x1b'
tRp5210
g12
(g13
g14
(dtRp5211
sg10
(S'\x07\xdb\x04\x11'
tRp5212
g12
(g13
g14
(dtRp5213
sg10
(S'\x07\xdb\x05\x1b'
tRp5214
g12
(g13
g14
(dtRp5215
sg10
(S'\x07\xdb\x0c\x17'
tRp5216
g12
(g13
g14
(dtRp5217
sg10
(S'\x07\xdb\n\x18'
tRp5218
g12
(g13
g14
(dtRp5219
sg10
(S'\x07\xdb\x03\x1d'
tRp5220
g12
(g13
g14
(dtRp5221
sg10
(S'\x07\xdb\t\t'
tRp5222
g12
(g13
g14
(dtRp5223
sg10
(S'\x07\xdb\x04\x16'
tRp5224
g12
(g13
g14
(dtRp5225
sg10
(S'\x07\xdb\x05\x12'
tRp5226
g12
(g13
g14
(dtRp5227
sg10
(S'\x07\xdb\x0c\x1c'
tRp5228
g12
(g13
g14
(dtRp5229
sg10
(S'\x07\xdb\x06\x05'
tRp5230
g12
(g13
g14
(dtRp5231
sg10
(S'\x07\xdb\x03\x14'
tRp5232
g12
(g13
g14
(dtRp5233
sg10
(S'\x07\xdb\x0b\x04'
tRp5234
g12
(g13
g14
(dtRp5235
sg10
(S'\x07\xdb\x02\x18'
tRp5236
g12
(g13
g14
(dtRp5237
sg10
(S'\x07\xdb\x08\x04'
tRp5238
g12
(g13
g14
(dtRp5239
sg10
(S'\x07\xdb\x0c\x05'
tRp5240
g12
(g13
g14
(dtRp5241
sg10
(S'\x07\xdb\x06\x0e'
tRp5242
g12
(g13
g14
(dtRp5243
sg10
(S'\x07\xdb\x03\x0b'
tRp5244
g12
(g13
g14
(dtRp5245
sg10
(S'\x07\xdb\t\x1b'
tRp5246
g12
(g13
g14
(dtRp5247
sg10
(S'\x07\xdb\x07\x02'
tRp5248
g12
(g13
g14
(dtRp5249
sg10
(S'\x07\xdb\x0b\x0b'
tRp5250
g12
(g13
g14
(dtRp5251
sg10
(S'\x07\xdb\x01\x02'
tRp5252
g12
(g13
g14
(dtRp5253
sg10
(S'\x07\xdb\x02\x11'
tRp5254
g12
(g13
g14
(dtRp5255
sg10
(S'\x07\xdb\x08\r'
tRp5256
g12
(g13
g14
(dtRp5257
sg10
(S'\x07\xdb\x0c\n'
tRp5258
g12
(g13
g14
(dtRp5259
sg10
(S'\x07\xdb\x06\x17'
tRp5260
g12
(g13
g14
(dtRp5261
sg10
(S'\x07\xdb\x03\x02'
tRp5262
g12
(g13
g14
(dtRp5263
sg10
(S'\x07\xdb\t\x12'
tRp5264
g12
(g13
g14
(dtRp5265
sg10
(S'\x07\xdb\x07\t'
tRp5266
g12
(g13
g14
(dtRp5267
sg10
(S'\x07\xdb\n\x01'
tRp5268
g12
(g13
g14
(dtRp5269
sg10
(S'\x07\xdb\x0b\x12'
tRp5270
g12
(g13
g14
(dtRp5271
sg10
(S'\x07\xdb\x01\x05'
tRp5272
g12
(g13
g14
(dtRp5273
sg10
(S'\x07\xdb\x02\n'
tRp5274
g12
(g13
g14
(dtRp5275
sg10
(S'\x07\xdb\x04\x0f'
tRp5276
g12
(g13
g14
(dtRp5277
sg10
(S'\x07\xdb\x08\n'
tRp5278
g12
(g13
g14
(dtRp5279
sg10
(S'\x07\xdb\x05\r'
tRp5280
g12
(g13
g14
(dtRp5281
sg10
(S'\x07\xdb\x06\x10'
tRp5282
g12
(g13
g14
(dtRp5283
sg10
(S'\x07\xdb\t\x15'
tRp5284
g12
(g13
g14
(dtRp5285
sg10
(S'\x07\xdb\x07\x10'
tRp5286
g12
(g13
g14
(dtRp5287
sg10
(S'\x07\xdb\n\n'
tRp5288
g12
(g13
g14
(dtRp5289
sg10
(S'\x07\xdb\x0b\x19'
tRp5290
g12
(g13
g14
(dtRp5291
sg10
(S'\x07\xdb\x01\x0c'
tRp5292
g12
(g13
g14
(dtRp5293
sg10
(S'\x07\xdb\x02\x03'
tRp5294
g12
(g13
g14
(dtRp5295
sg10
(S'\x07\xdb\x04\x04'
tRp5296
g12
(g13
g14
(dtRp5297
sg10
(S'\x07\xdb\x08\x13'
tRp5298
g12
(g13
g14
(dtRp5299
sg10
(S'\x07\xdb\x05\x04'
tRp5300
g12
(g13
g14
(dtRp5301
sg10
(S'\x07\xdb\x06\x19'
tRp5302
g12
(g13
g14
(dtRp5303
sg10
(S'\x07\xdb\x07\x1f'
tRp5304
g12
(g13
g14
(dtRp5305
sg10
(S'\x07\xdb\n\x13'
tRp5306
g12
(g13
g14
(dtRp5307
sg10
(S'\x07\xdb\x01\x17'
tRp5308
g12
(g13
g14
(dtRp5309
sg10
(S'\x07\xdb\x02\x04'
tRp5310
g12
(g13
g14
(dtRp5311
sg10
(S'\x07\xdb\x04\x1d'
tRp5312
g12
(g13
g14
(dtRp5313
sg10
(S'\x07\xdb\x08\x18'
tRp5314
g12
(g13
g14
(dtRp5315
sg10
(S'\x07\xdb\x05\x1f'
tRp5316
g12
(g13
g14
(dtRp5317
sg10
(S'\x07\xdb\x0c\x13'
tRp5318
g12
(g13
g14
(dtRp5319
sg10
(S'\x07\xdb\n\x14'
tRp5320
g12
(g13
g14
(dtRp5321
sg10
(S'\x07\xdb\x03\x19'
tRp5322
g12
(g13
g14
(dtRp5323
sg10
(S'\x07\xdb\x01\x1e'
tRp5324
g12
(g13
g14
(dtRp5325
sg10
(S'\x07\xdb\x04\x12'
tRp5326
g12
(g13
g14
(dtRp5327
sg10
(S'\x07\xdb\x05\x16'
tRp5328
g12
(g13
g14
(dtRp5329
sg10
(S'\x07\xdb\x0c\x18'
tRp5330
g12
(g13
g14
(dtRp5331
sg10
(S'\x07\xdb\n\x1d'
tRp5332
g12
(g13
g14
(dtRp5333
sg10
(S'\x07\xdb\x03\x10'
tRp5334
g12
(g13
g14
(dtRp5335
sg10
(S'\x07\xdb\t\x0c'
tRp5336
g12
(g13
g14
(dtRp5337
sg10
(S'\x07\xdb\x05\x11'
tRp5338
g12
(g13
g14
(dtRp5339
sg10
(S'\x07\xdb\x0c\x01'
tRp5340
g12
(g13
g14
(dtRp5341
sg10
(S'\x07\xdb\x06\x02'
tRp5342
g12
(g13
g14
(dtRp5343
sg10
(S'\x07\xdb\x03\x17'
tRp5344
g12
(g13
g14
(dtRp5345
sg10
(S'\x07\xdb\t\x07'
tRp5346
g12
(g13
g14
(dtRp5347
sg10
(S'\x07\xdb\x07\x06'
tRp5348
g12
(g13
g14
(dtRp5349
sg10
(S'\x07\xdb\x0b\x07'
tRp5350
g12
(g13
g14
(dtRp5351
sg10
(S'\x07\xdb\x08\x01'
tRp5352
g12
(g13
g14
(dtRp5353
sg10
(S'\x07\xdb\x0c\x06'
tRp5354
g12
(g13
g14
(dtRp5355
sg10
(S'\x07\xdb\x06\x0b'
tRp5356
g12
(g13
g14
(dtRp5357
sg10
(S'\x07\xdb\x03\x0e'
tRp5358
g12
(g13
g14
(dtRp5359
sg10
(S'\x07\xdb\t\x1e'
tRp5360
g12
(g13
g14
(dtRp5361
sg10
(S'\x07\xdb\x07\r'
tRp5362
g12
(g13
g14
(dtRp5363
sg10
(S'\x07\xdb\x0b\x0e'
tRp5364
g12
(g13
g14
(dtRp5365
sg578
g12
(g13
g14
(dtRp5366
sg10
(S'\x07\xdb\x02\x16'
tRp5367
g12
(g13
g14
(dtRp5368
sg10
(S'\x07\xdb\x04\x0b'
tRp5369
g12
(g13
g14
(dtRp5370
sg10
(S'\x07\xdb\x08\x0e'
tRp5371
g12
(g13
g14
(dtRp5372
sg10
(S'\x07\xdb\x0c\x0f'
tRp5373
g12
(g13
g14
(dtRp5374
sg10
(S'\x07\xdb\x06\x14'
tRp5375
g12
(g13
g14
(dtRp5376
sg10
(S'\x07\xdb\x03\x05'
tRp5377
g12
(g13
g14
(dtRp5378
sg10
(S'\x07\xdb\t\x11'
tRp5379
g12
(g13
g14
(dtRp5380
sg10
(S'\x07\xdb\x07\x14'
tRp5381
g12
(g13
g14
(dtRp5382
sg10
(S'\x07\xdb\n\x06'
tRp5383
g12
(g13
g14
(dtRp5384
sg10
(S'\x07\xdb\x0b\x15'
tRp5385
g12
(g13
g14
(dtRp5386
sg10
(S'\x07\xdb\x01\x08'
tRp5387
g12
(g13
g14
(dtRp5388
sg10
(S'\x07\xdb\x02\x0f'
tRp5389
g12
(g13
g14
(dtRp5390
sg10
(S'\x07\xdb\x08\x17'
tRp5391
g12
(g13
g14
(dtRp5392
sg10
(S'\x07\xdb\x05\x08'
tRp5393
g12
(g13
g14
(dtRp5394
sg10
(S'\x07\xdb\x06\x1d'
tRp5395
g12
(g13
g14
(dtRp5396
sg10
(S'\x07\xdb\x07\x13'
tRp5397
g12
(g13
g14
(dtRp5398
sg10
(S'\x07\xdb\n\x0f'
tRp5399
g12
(g13
g14
(dtRp5400
sg10
(S'\x07\xdb\x0b\x1c'
tRp5401
g12
(g13
g14
(dtRp5402
sg10
(S'\x07\xdb\x01\x13'
tRp5403
g12
(g13
g14
(dtRp5404
sg10
(S'\x07\xdb\x04\x19'
tRp5405
g12
(g13
g14
(dtRp5406
sg10
(S'\x07\xdb\x08\x1c'
tRp5407
g12
(g13
g14
(dtRp5408
sg10
(S'\x07\xdb\x05\x03'
tRp5409
g12
(g13
g14
(dtRp5410
sg10
(S'\x07\xdb\x07\x1a'
tRp5411
g12
(g13
g14
(dtRp5412
sg10
(S'\x07\xdb\n\x10'
tRp5413
g12
(g13
g14
(dtRp5414
sg10
(S'\x07\xdb\x01\x1a'
tRp5415
g12
(g13
g14
(dtRp5416
sg10
(S'\x07\xdb\x04\x1e'
tRp5417
g12
(g13
g14
(dtRp5418
sg10
(S'\x07\xdb\x05\x1a'
tRp5419
g12
(g13
g14
(dtRp5420
sg10
(S'\x07\xdb\x0c\x14'
tRp5421
g12
(g13
g14
(dtRp5422
sg10
(S'\x07\xdb\n\x19'
tRp5423
g12
(g13
g14
(dtRp5424
sg10
(S'\x07\xdb\x03\x1c'
tRp5425
g12
(g13
g14
(dtRp5426
sg10
(S'\x07\xdb\t\x08'
tRp5427
g12
(g13
g14
(dtRp5428
sg10
(S'\x07\xdb\x01\x1d'
tRp5429
g12
(g13
g14
(dtRp5430
sg10
(S'\x07\xdb\x04\x17'
tRp5431
g12
(g13
g14
(dtRp5432
sg10
(S'\x07\xdb\x05\x15'
tRp5433
g12
(g13
g14
(dtRp5434
sg10
(S'\x07\xdb\x0c\x1d'
tRp5435
g12
(g13
g14
(dtRp5436
sg10
(S'\x07\xdb\x06\x06'
tRp5437
g12
(g13
g14
(dtRp5438
sg10
(S'\x07\xdb\x03\x13'
tRp5439
g12
(g13
g14
(dtRp5440
sg10
(S'\x07\xdb\t\x03'
tRp5441
g12
(g13
g14
(dtRp5442
sg10
(S'\x07\xdb\x0b\x03'
tRp5443
g12
(g13
g14
(dtRp5444
sg10
(S'\x07\xdb\x02\x19'
tRp5445
g12
(g13
g14
(dtRp5446
sg10
(S'\x07\xdb\x08\x05'
tRp5447
g12
(g13
g14
(dtRp5448
sg10
(S'\x07\xdb\x0c\x02'
tRp5449
g12
(g13
g14
(dtRp5450
sg10
(S'\x07\xdb\x06\x0f'
tRp5451
g12
(g13
g14
(dtRp5452
sg10
(S'\x07\xdb\x03\n'
tRp5453
g12
(g13
g14
(dtRp5454
sg10
(S'\x07\xdb\t\x1a'
tRp5455
g12
(g13
g14
(dtRp5456
sg10
(S'\x07\xdb\x07\x01'
tRp5457
g12
(g13
g14
(dtRp5458
sg10
(S'\x07\xdb\x0b\n'
tRp5459
g12
(g13
g14
(dtRp5460
sg10
(S'\x07\xdb\x02\x12'
tRp5461
g12
(g13
g14
(dtRp5462
sg10
(S'\x07\xdb\x08\x02'
tRp5463
g12
(g13
g14
(dtRp5464
sg10
(S'\x07\xdb\x0c\x0b'
tRp5465
g12
(g13
g14
(dtRp5466
sg10
(S'\x07\xdb\x06\x08'
tRp5467
g12
(g13
g14
(dtRp5468
sg10
(S'\x07\xdb\x03\x01'
tRp5469
g12
(g13
g14
(dtRp5470
sg10
(S'\x07\xdb\t\x1d'
tRp5471
g12
(g13
g14
(dtRp5472
sg10
(S'\x07\xdb\x07\x08'
tRp5473
g12
(g13
g14
(dtRp5474
sg10
(S'\x07\xdb\n\x02'
tRp5475
g12
(g13
g14
(dtRp5476
sg10
(S'\x07\xdb\x0b\x11'
tRp5477
g12
(g13
g14
(dtRp5478
sg10
(S'\x07\xdb\x01\x04'
tRp5479
g12
(g13
g14
(dtRp5480
sg10
(S'\x07\xdb\x02\x0b'
tRp5481
g12
(g13
g14
(dtRp5482
sg10
(S'\x07\xdb\x04\x0c'
tRp5483
g12
(g13
g14
(dtRp5484
sg10
(S'\x07\xdb\x08\x0b'
tRp5485
g12
(g13
g14
(dtRp5486
sg10
(S'\x07\xdb\x05\x0c'
tRp5487
g12
(g13
g14
(dtRp5488
sg10
(S'\x07\xdb\x06\x11'
tRp5489
g12
(g13
g14
(dtRp5490
sg10
(S'\x07\xdb\t\x14'
tRp5491
g12
(g13
g14
(dtRp5492
sg10
(S'\x07\xdb\x07\x17'
tRp5493
g12
(g13
g14
(dtRp5494
sg10
(S'\x07\xdb\n\x0b'
tRp5495
g12
(g13
g14
(dtRp5496
sg10
(S'\x07\xdb\x0b\x18'
tRp5497
g12
(g13
g14
(dtRp5498
sg10
(S'\x07\xdb\x01\x0f'
tRp5499
g12
(g13
g14
(dtRp5500
sg10
(S'\x07\xdb\x02\x0c'
tRp5501
g12
(g13
g14
(dtRp5502
sg10
(S'\x07\xdb\x04\x05'
tRp5503
g12
(g13
g14
(dtRp5504
sg10
(S'\x07\xdb\x08\x10'
tRp5505
g12
(g13
g14
(dtRp5506
sg10
(S'\x07\xdb\x05\x07'
tRp5507
g12
(g13
g14
(dtRp5508
sg10
(S'\x07\xdb\x06\x1a'
tRp5509
g12
(g13
g14
(dtRp5510
sg10
(S'\x07\xdb\x07\x1e'
tRp5511
g12
(g13
g14
(dtRp5512
sg10
(S'\x07\xdb\n\x0c'
tRp5513
g12
(g13
g14
(dtRp5514
sg10
(S'\x07\xdb\x01\x16'
tRp5515
g12
(g13
g14
(dtRp5516
sg10
(S'\x07\xdb\x02\x05'
tRp5517
g12
(g13
g14
(dtRp5518
sg10
(S'\x07\xdb\x04\x1a'
tRp5519
g12
(g13
g14
(dtRp5520
sg10
(S'\x07\xdb\x08\x19'
tRp5521
g12
(g13
g14
(dtRp5522
sg10
(S'\x07\xdb\x05\x1e'
tRp5523
g12
(g13
g14
(dtRp5524
sg10
(S'\x07\xdb\x0c\x10'
tRp5525
g12
(g13
g14
(dtRp5526
sg10
(S'\x07\xdb\n\x15'
tRp5527
g12
(g13
g14
(dtRp5528
sg10
(S'\x07\xdb\x03\x18'
tRp5529
g12
(g13
g14
(dtRp5530
sg10
(S'\x07\xdb\x01\x19'
tRp5531
g12
(g13
g14
(dtRp5532
sg10
(S'\x07\xdb\x04\x13'
tRp5533
g12
(g13
g14
(dtRp5534
sg10
(S'\x07\xdb\x05\x19'
tRp5535
g12
(g13
g14
(dtRp5536
sg10
(S'\x07\xdb\x0c\x19'
tRp5537
g12
(g13
g14
(dtRp5538
sg10
(S'\x07\xdb\n\x1e'
tRp5539
g12
(g13
g14
(dtRp5540
sg10
(S'\x07\xdb\x03\x1f'
tRp5541
g12
(g13
g14
(dtRp5542
sg10
(S'\x07\xdb\t\x0f'
tRp5543
g12
(g13
g14
(dtRp5544
sg10
(S'\x07\xdb\x05\x10'
tRp5545
g12
(g13
g14
(dtRp5546
sg10
(S'\x07\xdb\x0c\x1e'
tRp5547
g12
(g13
g14
(dtRp5548
sg10
(S'\x07\xdb\x06\x03'
tRp5549
g12
(g13
g14
(dtRp5550
sg10
(S'\x07\xdb\x03\x16'
tRp5551
g12
(g13
g14
(dtRp5552
sg10
(S'\x07\xdb\t\x06'
tRp5553
g12
(g13
g14
(dtRp5554
sg10
(S'\x07\xdb\x07\x05'
tRp5555
g12
(g13
g14
(dtRp5556
sg10
(S'\x07\xdb\x0b\x06'
tRp5557
g12
(g13
g14
(dtRp5558
sg10
(S'\x07\xdb\x08\x06'
tRp5559
g12
(g13
g14
(dtRp5560
sg10
(S'\x07\xdb\x0c\x07'
tRp5561
g12
(g13
g14
(dtRp5562
sg10
(S'\x07\xdb\x06\x0c'
tRp5563
g12
(g13
g14
(dtRp5564
sg10
(S'\x07\xdb\x03\r'
tRp5565
g12
(g13
g14
(dtRp5566
sg10
(S'\x07\xdb\t\x19'
tRp5567
g12
(g13
g14
(dtRp5568
sg10
(S'\x07\xdb\x07\x0c'
tRp5569
g12
(g13
g14
(dtRp5570
sg10
(S'\x07\xdb\x0b\r'
tRp5571
g12
(g13
g14
(dtRp5572
sg10
(S'\x07\xdb\x02\x17'
tRp5573
g12
(g13
g14
(dtRp5574
sg10
(S'\x07\xdb\x04\x08'
tRp5575
g12
(g13
g14
(dtRp5576
sg10
(S'\x07\xdb\x08\x0f'
tRp5577
g12
(g13
g14
(dtRp5578
sg10
(S'\x07\xdb\x0c\x0c'
tRp5579
g12
(g13
g14
(dtRp5580
sg10
(S'\x07\xdb\x06\x15'
tRp5581
g12
(g13
g14
(dtRp5582
sg10
(S'\x07\xdb\x03\x04'
tRp5583
g12
(g13
g14
(dtRp5584
sg10
(S'\x07\xdb\t\x10'
tRp5585
g12
(g13
g14
(dtRp5586
sg10
(S'\x07\xdb\x07\x0b'
tRp5587
g12
(g13
g14
(dtRp5588
sg10
(S'\x07\xdb\n\x07'
tRp5589
g12
(g13
g14
(dtRp5590
sg10
(S'\x07\xdb\x0b\x14'
tRp5591
g12
(g13
g14
(dtRp5592
sg10
(S'\x07\xdb\x01\x0b'
tRp5593
g12
(g13
g14
(dtRp5594
sg10
(S'\x07\xdb\x02\x08'
tRp5595
g12
(g13
g14
(dtRp5596
sg10
(S'\x07\xdb\x04\x01'
tRp5597
g12
(g13
g14
(dtRp5598
sg10
(S'\x07\xdb\x08\x14'
tRp5599
g12
(g13
g14
(dtRp5600
sg10
(S'\x07\xdb\x05\x0b'
tRp5601
g12
(g13
g14
(dtRp5602
sg10
(S'\x07\xdb\x06\x1e'
tRp5603
g12
(g13
g14
(dtRp5604
sg10
(S'\x07\xdb\x07\x12'
tRp5605
g12
(g13
g14
(dtRp5606
sg10
(S'\x07\xdb\n\x08'
tRp5607
g12
(g13
g14
(dtRp5608
sg10
(S'\x07\xdb\x0b\x1b'
tRp5609
g12
(g13
g14
(dtRp5610
sg10
(S'\x07\xdb\x01\x12'
tRp5611
g12
(g13
g14
(dtRp5612
sg10
(S'\x07\xdb\x02\x01'
tRp5613
g12
(g13
g14
(dtRp5614
sg10
(S'\x07\xdb\x04\x06'
tRp5615
g12
(g13
g14
(dtRp5616
sg10
(S'\x07\xdb\x08\x1d'
tRp5617
g12
(g13
g14
(dtRp5618
sg10
(S'\x07\xdb\x05\x02'
tRp5619
g12
(g13
g14
(dtRp5620
sg10
(S'\x07\xdb\x07\x19'
tRp5621
g12
(g13
g14
(dtRp5622
sg10
(S'\x07\xdb\n\x11'
tRp5623
g12
(g13
g14
(dtRp5624
sg10
(S'\x07\xdb\x01\x15'
tRp5625
g12
(g13
g14
(dtRp5626
sg10
(S'\x07\xdb\x08\x1a'
tRp5627
g12
(g13
g14
(dtRp5628
sg10
(S'\x07\xdb\x05\x1d'
tRp5629
g12
(g13
g14
(dtRp5630
sg10
(S'\x07\xdb\x0c\x15'
tRp5631
g12
(g13
g14
(dtRp5632
sg10
(S'\x07\xdb\n\x1a'
tRp5633
g12
(g13
g14
(dtRp5634
sg10
(S'\x07\xdb\x03\x1b'
tRp5635
g12
(g13
g14
(dtRp5636
sg10
(S'\x07\xdb\t\x0b'
tRp5637
g12
(g13
g14
(dtRp5638
sg10
(S'\x07\xdb\x01\x1c'
tRp5639
g12
(g13
g14
(dtRp5640
sg10
(S'\x07\xdb\x04\x14'
tRp5641
g12
(g13
g14
(dtRp5642
sg10
(S'\x07\xdb\x05\x14'
tRp5643
g12
(g13
g14
(dtRp5644
sg10
(S'\x07\xdb\x0c\x1a'
tRp5645
g12
(g13
g14
(dtRp5646
sg10
(S'\x07\xdb\x06\x07'
tRp5647
g12
(g13
g14
(dtRp5648
sg10
(S'\x07\xdb\x03\x12'
tRp5649
g12
(g13
g14
(dtRp5650
sg10
(S'\x07\xdb\t\x02'
tRp5651
g12
(g13
g14
(dtRp5652
sg10
(S'\x07\xdb\x0b\x02'
tRp5653
g12
(g13
g14
(dtRp5654
sg10
(S'\x07\xdb\x02\x1a'
tRp5655
g12
(g13
g14
(dtRp5656
sg10
(S'\x07\xdb\x0c\x03'
tRp5657
g12
(g13
g14
(dtRp5658
sg10
(S'\x07\xdb\x03\t'
tRp5659
g12
(g13
g14
(dtRp5660
sg10
(S'\x07\xdb\t\x05'
tRp5661
g12
(g13
g14
(dtRp5662
sg10
(S'\x07\xdb\x0b\t'
tRp5663
g12
(g13
g14
(dtRp5664
sg10
(S'\x07\xdb\x02\x13'
tRp5665
g12
(g13
g14
(dtRp5666
sg10
(S'\x07\xdb\x08\x03'
tRp5667
g12
(g13
g14
(dtRp5668
sg10
(S'\x07\xdb\x0c\x08'
tRp5669
g12
(g13
g14
(dtRp5670
sg10
(S'\x07\xdb\x06\t'
tRp5671
g12
(g13
g14
(dtRp5672
sg10
(S'\x07\xdb\t\x1c'
tRp5673
g12
(g13
g14
(dtRp5674
sg10
(S'\x07\xdb\x07\x0f'
tRp5675
g12
(g13
g14
(dtRp5676
sg10
(S'\x07\xdb\n\x03'
tRp5677
g12
(g13
g14
(dtRp5678
sg10
(S'\x07\xdb\x0b\x10'
tRp5679
g12
(g13
g14
(dtRp5680
sg10
(S'\x07\xdb\x01\x07'
tRp5681
g12
(g13
g14
(dtRp5682
sg10
(S'\x07\xdb\x02\x14'
tRp5683
g12
(g13
g14
(dtRp5684
sg10
(S'\x07\xdb\x04\r'
tRp5685
g12
(g13
g14
(dtRp5686
sg10
(S'\x07\xdb\x08\x08'
tRp5687
g12
(g13
g14
(dtRp5688
sg10
(S'\x07\xdb\x05\x0f'
tRp5689
g12
(g13
g14
(dtRp5690
sg10
(S'\x07\xdb\x06\x12'
tRp5691
g12
(g13
g14
(dtRp5692
sg10
(S'\x07\xdb\x03\x07'
tRp5693
g12
(g13
g14
(dtRp5694
sg10
(S'\x07\xdb\t\x17'
tRp5695
g12
(g13
g14
(dtRp5696
sg10
(S'\x07\xdb\x07\x16'
tRp5697
g12
(g13
g14
(dtRp5698
sg10
(S'\x07\xdb\n\x04'
tRp5699
g12
(g13
g14
(dtRp5700
sg10
(S'\x07\xdb\x0b\x17'
tRp5701
g12
(g13
g14
(dtRp5702
sg10
(S'\x07\xdb\x01\x0e'
tRp5703
g12
(g13
g14
(dtRp5704
sg10
(S'\x07\xdb\x02\r'
tRp5705
g12
(g13
g14
(dtRp5706
sg10
(S'\x07\xdb\x04\x02'
tRp5707
g12
(g13
g14
(dtRp5708
sg10
(S'\x07\xdb\x08\x11'
tRp5709
g12
(g13
g14
(dtRp5710
sg10
(S'\x07\xdb\x05\x06'
tRp5711
g12
(g13
g14
(dtRp5712
sg10
(S'\x07\xdb\x06\x1b'
tRp5713
g12
(g13
g14
(dtRp5714
sg10
(S'\x07\xdb\x07\x1d'
tRp5715
g12
(g13
g14
(dtRp5716
sg10
(S'\x07\xdb\n\r'
tRp5717
g12
(g13
g14
(dtRp5718
sg10
(S'\x07\xdb\x0b\x1e'
tRp5719
g12
(g13
g14
(dtRp5720
sg10
(S'\x07\xdb\x01\x11'
tRp5721
g12
(g13
g14
(dtRp5722
sg10
(S'\x07\xdb\x02\x06'
tRp5723
g12
(g13
g14
(dtRp5724
sg10
(S'\x07\xdb\x04\x1b'
tRp5725
g12
(g13
g14
(dtRp5726
sg10
(S'\x07\xdb\x08\x1e'
tRp5727
g12
(g13
g14
(dtRp5728
sg10
(S'\x07\xdb\x05\x01'
tRp5729
g12
(g13
g14
(dtRp5730
sg10
(S'\x07\xdb\x0c\x11'
tRp5731
g12
(g13
g14
(dtRp5732
sg10
(S'\x07\xdb\n\x16'
tRp5733
g12
(g13
g14
(dp5734
V's
p5735
I2
sVp
I1
sVnever
p5736
I1
sVstartup
p5737
I1
sVprivate
p5738
I1
sVrefused
p5739
I1
sVheard
p5740
I1
sVpart
p5741
I1
sVyuri
p5742
I1
sVincidentally
p5743
I1
sVinvestment
p5744
I1
sVcase
p5745
I1
sVfund
p5746
I3
sVdst
p5747
I1
sVlps
p5748
I1
sVstart
p5749
I1
sVwere.
p5750
I1
sVventure
p5751
I1
sVfact
p5752
I1
stRp5753
sg10
(S'\x07\xdb\x01\x18'
tRp5754
g12
(g13
g14
(dtRp5755
sg10
(S'\x07\xdb\x04\x10'
tRp5756
g12
(g13
g14
(dtRp5757
sg10
(S'\x07\xdb\x05\x18'
tRp5758
g12
(g13
g14
(dtRp5759
sg10
(S'\x07\xdb\x0c\x16'
tRp5760
g12
(g13
g14
(dtRp5761
sg10
(S'\x07\xdb\n\x1f'
tRp5762
g12
(g13
g14
(dtRp5763
sg10
(S'\x07\xdb\x03\x1e'
tRp5764
g12
(g13
g14
(dtRp5765
sg10
(S'\x07\xdb\t\x0e'
tRp5766
g12
(g13
g14
(dtRp5767
sg10
(S'\x07\xdb\x05\x13'
tRp5768
g12
(g13
g14
(dtRp5769
sg10
(S'\x07\xdb\x0c\x1f'
tRp5770
g12
(g13
g14
(dtRp5771
sg10
(S'\x07\xdb\x06\x04'
tRp5772
g12
(g13
g14
(dtRp5773
sg10
(S'\x07\xdb\x03\x15'
tRp5774
g12
(g13
g14
(dtRp5775
sg10
(S'\x07\xdb\t\x01'
tRp5776
g12
(g13
g14
(dtRp5777
sg10
(S'\x07\xdb\x07\x04'
tRp5778
g12
(g13
g14
(dtRp5779
ssbsVmsft
p5780
(iTimeSeries
TimeSeries
p5781
(dp5782
g8
(dp5783
g10
(S'\x07\xdb\x0b\x05'
tRp5784
g12
(g13
g14
(dtRp5785
sg10
(S'\x07\xdb\x08\x07'
tRp5786
g12
(g13
g14
(dtRp5787
sg10
(S'\x07\xdb\x0c\x04'
tRp5788
g12
(g13
g14
(dtRp5789
sg10
(S'\x07\xdb\x06\r'
tRp5790
g12
(g13
g14
(dtRp5791
sg10
(S'\x07\xdb\x03\x0c'
tRp5792
g12
(g13
g14
(dtRp5793
sg10
(S'\x07\xdb\t\x18'
tRp5794
g12
(g13
g14
(dtRp5795
sg10
(S'\x07\xdb\x07\x03'
tRp5796
g12
(g13
g14
(dtRp5797
sg10
(S'\x07\xdb\x0b\x0c'
tRp5798
g12
(g13
g14
(dtRp5799
sg10
(S'\x07\xdb\x01\x03'
tRp5800
g12
(g13
g14
(dtRp5801
sg10
(S'\x07\xdb\x02\x10'
tRp5802
g12
(g13
g14
(dtRp5803
sg10
(S'\x07\xdb\x04\t'
tRp5804
g12
(g13
g14
(dtRp5805
sg10
(S'\x07\xdb\x08\x0c'
tRp5806
g12
(g13
g14
(dtRp5807
sg10
(S'\x07\xdb\x0c\r'
tRp5808
g12
(g13
g14
(dtRp5809
sg10
(S'\x07\xdb\x06\x16'
tRp5810
g12
(g13
g14
(dtRp5811
sg10
(S'\x07\xdb\x03\x03'
tRp5812
g12
(g13
g14
(dtRp5813
sg10
(S'\x07\xdb\t\x13'
tRp5814
g12
(g13
g14
(dtRp5815
sg10
(S'\x07\xdb\x07\n'
tRp5816
g12
(g13
g14
(dtRp5817
sg10
(S'\x07\xdb\x0b\x13'
tRp5818
g12
(g13
g14
(dtRp5819
sg10
(S'\x07\xdb\x01\n'
tRp5820
g12
(g13
g14
(dtRp5821
sg10
(S'\x07\xdb\x02\t'
tRp5822
g12
(g13
g14
(dtRp5823
sg10
(S'\x07\xdb\x04\x0e'
tRp5824
g12
(g13
g14
(dtRp5825
sg10
(S'\x07\xdb\x08\x15'
tRp5826
g12
(g13
g14
(dtRp5827
sg10
(S'\x07\xdb\x05\n'
tRp5828
g12
(g13
g14
(dtRp5829
sg10
(S'\x07\xdb\x07\x11'
tRp5830
g12
(g13
g14
(dtRp5831
sg10
(S'\x07\xdb\n\t'
tRp5832
g12
(g13
g14
(dtRp5833
sg10
(S'\x07\xdb\x0b\x1a'
tRp5834
g12
(g13
g14
(dtRp5835
sg10
(S'\x07\xdb\x01\r'
tRp5836
g12
(g13
g14
(dtRp5837
sg10
(S'\x07\xdb\x02\x02'
tRp5838
g12
(g13
g14
(dtRp5839
sg10
(S'\x07\xdb\x04\x07'
tRp5840
g12
(g13
g14
(dtRp5841
sg10
(S'\x07\xdb\x08\x12'
tRp5842
g12
(g13
g14
(dtRp5843
sg10
(S'\x07\xdb\x05\x05'
tRp5844
g12
(g13
g14
(dtRp5845
sg10
(S'\x07\xdb\x06\x18'
tRp5846
g12
(g13
g14
(dtRp5847
sg10
(S'\x07\xdb\x07\x18'
tRp5848
g12
(g13
g14
(dtRp5849
sg10
(S'\x07\xdb\n\x12'
tRp5850
g12
(g13
g14
(dtRp5851
sg10
(S'\x07\xdb\x01\x14'
tRp5852
g12
(g13
g14
(dtRp5853
sg10
(S'\x07\xdb\x04\x1c'
tRp5854
g12
(g13
g14
(dtRp5855
sg10
(S'\x07\xdb\x08\x1b'
tRp5856
g12
(g13
g14
(dtRp5857
sg10
(S'\x07\xdb\x05\x1c'
tRp5858
g12
(g13
g14
(dtRp5859
sg10
(S'\x07\xdb\x0c\x12'
tRp5860
g12
(g13
g14
(dtRp5861
sg10
(S'\x07\xdb\n\x1b'
tRp5862
g12
(g13
g14
(dtRp5863
sg10
(S'\x07\xdb\x03\x1a'
tRp5864
g12
(g13
g14
(dtRp5865
sg10
(S'\x07\xdb\t\n'
tRp5866
g12
(g13
g14
(dtRp5867
sg10
(S'\x07\xdb\x01\x1f'
tRp5868
g12
(g13
g14
(dtRp5869
sg10
(S'\x07\xdb\x04\x15'
tRp5870
g12
(g13
g14
(dtRp5871
sg10
(S'\x07\xdb\x05\x17'
tRp5872
g12
(g13
g14
(dtRp5873
sg10
(S'\x07\xdb\x0c\x1b'
tRp5874
g12
(g13
g14
(dtRp5875
sg10
(S'\x07\xdb\n\x1c'
tRp5876
g12
(g13
g14
(dtRp5877
sg10
(S'\x07\xdb\x03\x11'
tRp5878
g12
(g13
g14
(dtRp5879
sg10
(S'\x07\xdb\t\r'
tRp5880
g12
(g13
g14
(dtRp5881
sg10
(S'\x07\xdb\x0b\x01'
tRp5882
g12
(g13
g14
(dtRp5883
sg10
(S'\x07\xdb\x02\x1b'
tRp5884
g12
(g13
g14
(dtRp5885
sg10
(S'\x07\xdb\x06\x01'
tRp5886
g12
(g13
g14
(dtRp5887
sg10
(S'\x07\xdb\x03\x08'
tRp5888
g12
(g13
g14
(dtRp5889
sg10
(S'\x07\xdb\t\x04'
tRp5890
g12
(g13
g14
(dtRp5891
sg10
(S'\x07\xdb\x07\x07'
tRp5892
g12
(g13
g14
(dtRp5893
sg10
(S'\x07\xdb\x0b\x08'
tRp5894
g12
(g13
g14
(dtRp5895
sg10
(S'\x07\xdb\x02\x1c'
tRp5896
g12
(g13
g14
(dtRp5897
sg10
(S'\x07\xdb\x0c\t'
tRp5898
g12
(g13
g14
(dtRp5899
sg10
(S'\x07\xdb\x06\n'
tRp5900
g12
(g13
g14
(dtRp5901
sg10
(S'\x07\xdb\x03\x0f'
tRp5902
g12
(g13
g14
(dtRp5903
sg10
(S'\x07\xdb\x07\x0e'
tRp5904
g12
(g13
g14
(dtRp5905
sg10
(S'\x07\xdb\x0b\x0f'
tRp5906
g12
(g13
g14
(dtRp5907
sg10
(S'\x07\xdb\x01\x06'
tRp5908
g12
(g13
g14
(dtRp5909
sg10
(S'\x07\xdb\x02\x15'
tRp5910
g12
(g13
g14
(dtRp5911
sg10
(S'\x07\xdb\x04\n'
tRp5912
g12
(g13
g14
(dtRp5913
sg10
(S'\x07\xdb\x08\t'
tRp5914
g12
(g13
g14
(dtRp5915
sg10
(S'\x07\xdb\x05\x0e'
tRp5916
g12
(g13
g14
(dtRp5917
sg10
(S'\x07\xdb\x0c\x0e'
tRp5918
g12
(g13
g14
(dtRp5919
sg10
(S'\x07\xdb\x06\x13'
tRp5920
g12
(g13
g14
(dtRp5921
sg10
(S'\x07\xdb\x03\x06'
tRp5922
g12
(g13
g14
(dtRp5923
sg10
(S'\x07\xdb\t\x16'
tRp5924
g12
(g13
g14
(dtRp5925
sg10
(S'\x07\xdb\x07\x15'
tRp5926
g12
(g13
g14
(dtRp5927
sg10
(S'\x07\xdb\n\x05'
tRp5928
g12
(g13
g14
(dtRp5929
sg10
(S'\x07\xdb\x0b\x16'
tRp5930
g12
(g13
g14
(dtRp5931
sg10
(S'\x07\xdb\x01\t'
tRp5932
g12
(g13
g14
(dtRp5933
sg10
(S'\x07\xdb\x02\x0e'
tRp5934
g12
(g13
g14
(dtRp5935
sg10
(S'\x07\xdb\x04\x03'
tRp5936
g12
(g13
g14
(dtRp5937
sg10
(S'\x07\xdb\x08\x16'
tRp5938
g12
(g13
g14
(dtRp5939
sg10
(S'\x07\xdb\x05\t'
tRp5940
g12
(g13
g14
(dtRp5941
sg10
(S'\x07\xdb\x06\x1c'
tRp5942
g12
(g13
g14
(dtRp5943
sg10
(S'\x07\xdb\x07\x1c'
tRp5944
g12
(g13
g14
(dtRp5945
sg10
(S'\x07\xdb\n\x0e'
tRp5946
g12
(g13
g14
(dtRp5947
sg10
(S'\x07\xdb\x0b\x1d'
tRp5948
g12
(g13
g14
(dtRp5949
sg10
(S'\x07\xdb\x01\x10'
tRp5950
g12
(g13
g14
(dtRp5951
sg10
(S'\x07\xdb\x02\x07'
tRp5952
g12
(g13
g14
(dtRp5953
sg10
(S'\x07\xdb\x04\x18'
tRp5954
g12
(g13
g14
(dtRp5955
sg10
(S'\x07\xdb\x08\x1f'
tRp5956
g12
(g13
g14
(dtRp5957
sg10
(S'\x07\xdb\x07\x1b'
tRp5958
g12
(g13
g14
(dtRp5959
sg10
(S'\x07\xdb\n\x17'
tRp5960
g12
(g13
g14
(dtRp5961
sg10
(S'\x07\xdb\x01\x1b'
tRp5962
g12
(g13
g14
(dtRp5963
sg10
(S'\x07\xdb\x04\x11'
tRp5964
g12
(g13
g14
(dtRp5965
sg10
(S'\x07\xdb\x05\x1b'
tRp5966
g12
(g13
g14
(dtRp5967
sg10
(S'\x07\xdb\x0c\x17'
tRp5968
g12
(g13
g14
(dtRp5969
sg10
(S'\x07\xdb\n\x18'
tRp5970
g12
(g13
g14
(dtRp5971
sg10
(S'\x07\xdb\x03\x1d'
tRp5972
g12
(g13
g14
(dtRp5973
sg10
(S'\x07\xdb\t\t'
tRp5974
g12
(g13
g14
(dtRp5975
sg10
(S'\x07\xdb\x04\x16'
tRp5976
g12
(g13
g14
(dtRp5977
sg10
(S'\x07\xdb\x05\x12'
tRp5978
g12
(g13
g14
(dtRp5979
sg10
(S'\x07\xdb\x0c\x1c'
tRp5980
g12
(g13
g14
(dtRp5981
sg10
(S'\x07\xdb\x06\x05'
tRp5982
g12
(g13
g14
(dtRp5983
sg10
(S'\x07\xdb\x03\x14'
tRp5984
g12
(g13
g14
(dtRp5985
sg10
(S'\x07\xdb\x0b\x04'
tRp5986
g12
(g13
g14
(dtRp5987
sg10
(S'\x07\xdb\x02\x18'
tRp5988
g12
(g13
g14
(dtRp5989
sg10
(S'\x07\xdb\x08\x04'
tRp5990
g12
(g13
g14
(dtRp5991
sg10
(S'\x07\xdb\x0c\x05'
tRp5992
g12
(g13
g14
(dtRp5993
sg10
(S'\x07\xdb\x06\x0e'
tRp5994
g12
(g13
g14
(dtRp5995
sg10
(S'\x07\xdb\x03\x0b'
tRp5996
g12
(g13
g14
(dtRp5997
sg10
(S'\x07\xdb\t\x1b'
tRp5998
g12
(g13
g14
(dtRp5999
sg10
(S'\x07\xdb\x07\x02'
tRp6000
g12
(g13
g14
(dtRp6001
sg10
(S'\x07\xdb\x0b\x0b'
tRp6002
g12
(g13
g14
(dtRp6003
sg10
(S'\x07\xdb\x01\x02'
tRp6004
g12
(g13
g14
(dtRp6005
sg10
(S'\x07\xdb\x02\x11'
tRp6006
g12
(g13
g14
(dtRp6007
sg10
(S'\x07\xdb\x08\r'
tRp6008
g12
(g13
g14
(dtRp6009
sg10
(S'\x07\xdb\x0c\n'
tRp6010
g12
(g13
g14
(dtRp6011
sg10
(S'\x07\xdb\x06\x17'
tRp6012
g12
(g13
g14
(dtRp6013
sg10
(S'\x07\xdb\x03\x02'
tRp6014
g12
(g13
g14
(dtRp6015
sg10
(S'\x07\xdb\t\x12'
tRp6016
g12
(g13
g14
(dtRp6017
sg10
(S'\x07\xdb\x07\t'
tRp6018
g12
(g13
g14
(dtRp6019
sg10
(S'\x07\xdb\n\x01'
tRp6020
g12
(g13
g14
(dtRp6021
sg10
(S'\x07\xdb\x0b\x12'
tRp6022
g12
(g13
g14
(dtRp6023
sg10
(S'\x07\xdb\x01\x05'
tRp6024
g12
(g13
g14
(dtRp6025
sg10
(S'\x07\xdb\x02\n'
tRp6026
g12
(g13
g14
(dtRp6027
sg10
(S'\x07\xdb\x04\x0f'
tRp6028
g12
(g13
g14
(dtRp6029
sg10
(S'\x07\xdb\x08\n'
tRp6030
g12
(g13
g14
(dtRp6031
sg10
(S'\x07\xdb\x05\r'
tRp6032
g12
(g13
g14
(dtRp6033
sg10
(S'\x07\xdb\x06\x10'
tRp6034
g12
(g13
g14
(dtRp6035
sg10
(S'\x07\xdb\t\x15'
tRp6036
g12
(g13
g14
(dtRp6037
sg10
(S'\x07\xdb\x07\x10'
tRp6038
g12
(g13
g14
(dtRp6039
sg10
(S'\x07\xdb\n\n'
tRp6040
g12
(g13
g14
(dtRp6041
sg10
(S'\x07\xdb\x0b\x19'
tRp6042
g12
(g13
g14
(dtRp6043
sg10
(S'\x07\xdb\x01\x0c'
tRp6044
g12
(g13
g14
(dtRp6045
sg10
(S'\x07\xdb\x02\x03'
tRp6046
g12
(g13
g14
(dtRp6047
sg10
(S'\x07\xdb\x04\x04'
tRp6048
g12
(g13
g14
(dtRp6049
sg10
(S'\x07\xdb\x08\x13'
tRp6050
g12
(g13
g14
(dtRp6051
sg10
(S'\x07\xdb\x05\x04'
tRp6052
g12
(g13
g14
(dtRp6053
sg10
(S'\x07\xdb\x06\x19'
tRp6054
g12
(g13
g14
(dtRp6055
sg10
(S'\x07\xdb\x07\x1f'
tRp6056
g12
(g13
g14
(dtRp6057
sg10
(S'\x07\xdb\n\x13'
tRp6058
g12
(g13
g14
(dtRp6059
sg10
(S'\x07\xdb\x01\x17'
tRp6060
g12
(g13
g14
(dtRp6061
sg10
(S'\x07\xdb\x02\x04'
tRp6062
g12
(g13
g14
(dtRp6063
sg10
(S'\x07\xdb\x04\x1d'
tRp6064
g12
(g13
g14
(dtRp6065
sg10
(S'\x07\xdb\x08\x18'
tRp6066
g12
(g13
g14
(dtRp6067
sg10
(S'\x07\xdb\x05\x1f'
tRp6068
g12
(g13
g14
(dtRp6069
sg10
(S'\x07\xdb\x0c\x13'
tRp6070
g12
(g13
g14
(dtRp6071
sg10
(S'\x07\xdb\n\x14'
tRp6072
g12
(g13
g14
(dtRp6073
sg10
(S'\x07\xdb\x03\x19'
tRp6074
g12
(g13
g14
(dtRp6075
sg10
(S'\x07\xdb\x01\x1e'
tRp6076
g12
(g13
g14
(dtRp6077
sg10
(S'\x07\xdb\x04\x12'
tRp6078
g12
(g13
g14
(dtRp6079
sg10
(S'\x07\xdb\x05\x16'
tRp6080
g12
(g13
g14
(dtRp6081
sg10
(S'\x07\xdb\x0c\x18'
tRp6082
g12
(g13
g14
(dtRp6083
sg10
(S'\x07\xdb\n\x1d'
tRp6084
g12
(g13
g14
(dtRp6085
sg10
(S'\x07\xdb\x03\x10'
tRp6086
g12
(g13
g14
(dtRp6087
sg10
(S'\x07\xdb\t\x0c'
tRp6088
g12
(g13
g14
(dtRp6089
sg10
(S'\x07\xdb\x05\x11'
tRp6090
g12
(g13
g14
(dtRp6091
sg10
(S'\x07\xdb\x0c\x01'
tRp6092
g12
(g13
g14
(dtRp6093
sg10
(S'\x07\xdb\x06\x02'
tRp6094
g12
(g13
g14
(dtRp6095
sg10
(S'\x07\xdb\x03\x17'
tRp6096
g12
(g13
g14
(dtRp6097
sg10
(S'\x07\xdb\t\x07'
tRp6098
g12
(g13
g14
(dtRp6099
sg10
(S'\x07\xdb\x07\x06'
tRp6100
g12
(g13
g14
(dtRp6101
sg10
(S'\x07\xdb\x0b\x07'
tRp6102
g12
(g13
g14
(dtRp6103
sg10
(S'\x07\xdb\x08\x01'
tRp6104
g12
(g13
g14
(dtRp6105
sg10
(S'\x07\xdb\x0c\x06'
tRp6106
g12
(g13
g14
(dtRp6107
sg10
(S'\x07\xdb\x06\x0b'
tRp6108
g12
(g13
g14
(dtRp6109
sg10
(S'\x07\xdb\x03\x0e'
tRp6110
g12
(g13
g14
(dtRp6111
sg10
(S'\x07\xdb\t\x1e'
tRp6112
g12
(g13
g14
(dtRp6113
sg10
(S'\x07\xdb\x07\r'
tRp6114
g12
(g13
g14
(dtRp6115
sg10
(S'\x07\xdb\x0b\x0e'
tRp6116
g12
(g13
g14
(dtRp6117
sg578
g12
(g13
g14
(dtRp6118
sg10
(S'\x07\xdb\x02\x16'
tRp6119
g12
(g13
g14
(dtRp6120
sg10
(S'\x07\xdb\x04\x0b'
tRp6121
g12
(g13
g14
(dtRp6122
sg10
(S'\x07\xdb\x08\x0e'
tRp6123
g12
(g13
g14
(dtRp6124
sg10
(S'\x07\xdb\x0c\x0f'
tRp6125
g12
(g13
g14
(dtRp6126
sg10
(S'\x07\xdb\x06\x14'
tRp6127
g12
(g13
g14
(dtRp6128
sg10
(S'\x07\xdb\x03\x05'
tRp6129
g12
(g13
g14
(dtRp6130
sg10
(S'\x07\xdb\t\x11'
tRp6131
g12
(g13
g14
(dtRp6132
sg10
(S'\x07\xdb\x07\x14'
tRp6133
g12
(g13
g14
(dtRp6134
sg10
(S'\x07\xdb\n\x06'
tRp6135
g12
(g13
g14
(dtRp6136
sg10
(S'\x07\xdb\x0b\x15'
tRp6137
g12
(g13
g14
(dtRp6138
sg10
(S'\x07\xdb\x01\x08'
tRp6139
g12
(g13
g14
(dtRp6140
sg10
(S'\x07\xdb\x02\x0f'
tRp6141
g12
(g13
g14
(dtRp6142
sg10
(S'\x07\xdb\x08\x17'
tRp6143
g12
(g13
g14
(dtRp6144
sg10
(S'\x07\xdb\x05\x08'
tRp6145
g12
(g13
g14
(dtRp6146
sg10
(S'\x07\xdb\x06\x1d'
tRp6147
g12
(g13
g14
(dtRp6148
sg10
(S'\x07\xdb\x07\x13'
tRp6149
g12
(g13
g14
(dtRp6150
sg10
(S'\x07\xdb\n\x0f'
tRp6151
g12
(g13
g14
(dtRp6152
sg10
(S'\x07\xdb\x0b\x1c'
tRp6153
g12
(g13
g14
(dtRp6154
sg10
(S'\x07\xdb\x01\x13'
tRp6155
g12
(g13
g14
(dtRp6156
sg10
(S'\x07\xdb\x04\x19'
tRp6157
g12
(g13
g14
(dtRp6158
sg10
(S'\x07\xdb\x08\x1c'
tRp6159
g12
(g13
g14
(dtRp6160
sg10
(S'\x07\xdb\x05\x03'
tRp6161
g12
(g13
g14
(dtRp6162
sg10
(S'\x07\xdb\x07\x1a'
tRp6163
g12
(g13
g14
(dtRp6164
sg10
(S'\x07\xdb\n\x10'
tRp6165
g12
(g13
g14
(dtRp6166
sg10
(S'\x07\xdb\x01\x1a'
tRp6167
g12
(g13
g14
(dtRp6168
sg10
(S'\x07\xdb\x04\x1e'
tRp6169
g12
(g13
g14
(dtRp6170
sg10
(S'\x07\xdb\x05\x1a'
tRp6171
g12
(g13
g14
(dtRp6172
sg10
(S'\x07\xdb\x0c\x14'
tRp6173
g12
(g13
g14
(dtRp6174
sg10
(S'\x07\xdb\n\x19'
tRp6175
g12
(g13
g14
(dtRp6176
sg10
(S'\x07\xdb\x03\x1c'
tRp6177
g12
(g13
g14
(dtRp6178
sg10
(S'\x07\xdb\t\x08'
tRp6179
g12
(g13
g14
(dtRp6180
sg10
(S'\x07\xdb\x01\x1d'
tRp6181
g12
(g13
g14
(dtRp6182
sg10
(S'\x07\xdb\x04\x17'
tRp6183
g12
(g13
g14
(dtRp6184
sg10
(S'\x07\xdb\x05\x15'
tRp6185
g12
(g13
g14
(dtRp6186
sg10
(S'\x07\xdb\x0c\x1d'
tRp6187
g12
(g13
g14
(dtRp6188
sg10
(S'\x07\xdb\x06\x06'
tRp6189
g12
(g13
g14
(dtRp6190
sg10
(S'\x07\xdb\x03\x13'
tRp6191
g12
(g13
g14
(dtRp6192
sg10
(S'\x07\xdb\t\x03'
tRp6193
g12
(g13
g14
(dtRp6194
sg10
(S'\x07\xdb\x0b\x03'
tRp6195
g12
(g13
g14
(dtRp6196
sg10
(S'\x07\xdb\x02\x19'
tRp6197
g12
(g13
g14
(dtRp6198
sg10
(S'\x07\xdb\x08\x05'
tRp6199
g12
(g13
g14
(dtRp6200
sg10
(S'\x07\xdb\x0c\x02'
tRp6201
g12
(g13
g14
(dtRp6202
sg10
(S'\x07\xdb\x06\x0f'
tRp6203
g12
(g13
g14
(dtRp6204
sg10
(S'\x07\xdb\x03\n'
tRp6205
g12
(g13
g14
(dtRp6206
sg10
(S'\x07\xdb\t\x1a'
tRp6207
g12
(g13
g14
(dtRp6208
sg10
(S'\x07\xdb\x07\x01'
tRp6209
g12
(g13
g14
(dtRp6210
sg10
(S'\x07\xdb\x0b\n'
tRp6211
g12
(g13
g14
(dtRp6212
sg10
(S'\x07\xdb\x02\x12'
tRp6213
g12
(g13
g14
(dtRp6214
sg10
(S'\x07\xdb\x08\x02'
tRp6215
g12
(g13
g14
(dtRp6216
sg10
(S'\x07\xdb\x0c\x0b'
tRp6217
g12
(g13
g14
(dtRp6218
sg10
(S'\x07\xdb\x06\x08'
tRp6219
g12
(g13
g14
(dtRp6220
sg10
(S'\x07\xdb\x03\x01'
tRp6221
g12
(g13
g14
(dtRp6222
sg10
(S'\x07\xdb\t\x1d'
tRp6223
g12
(g13
g14
(dtRp6224
sg10
(S'\x07\xdb\x07\x08'
tRp6225
g12
(g13
g14
(dtRp6226
sg10
(S'\x07\xdb\n\x02'
tRp6227
g12
(g13
g14
(dtRp6228
sg10
(S'\x07\xdb\x0b\x11'
tRp6229
g12
(g13
g14
(dtRp6230
sg10
(S'\x07\xdb\x01\x04'
tRp6231
g12
(g13
g14
(dtRp6232
sg10
(S'\x07\xdb\x02\x0b'
tRp6233
g12
(g13
g14
(dtRp6234
sg10
(S'\x07\xdb\x04\x0c'
tRp6235
g12
(g13
g14
(dtRp6236
sg10
(S'\x07\xdb\x08\x0b'
tRp6237
g12
(g13
g14
(dtRp6238
sg10
(S'\x07\xdb\x05\x0c'
tRp6239
g12
(g13
g14
(dtRp6240
sg10
(S'\x07\xdb\x06\x11'
tRp6241
g12
(g13
g14
(dtRp6242
sg10
(S'\x07\xdb\t\x14'
tRp6243
g12
(g13
g14
(dtRp6244
sg10
(S'\x07\xdb\x07\x17'
tRp6245
g12
(g13
g14
(dtRp6246
sg10
(S'\x07\xdb\n\x0b'
tRp6247
g12
(g13
g14
(dtRp6248
sg10
(S'\x07\xdb\x0b\x18'
tRp6249
g12
(g13
g14
(dtRp6250
sg10
(S'\x07\xdb\x01\x0f'
tRp6251
g12
(g13
g14
(dtRp6252
sg10
(S'\x07\xdb\x02\x0c'
tRp6253
g12
(g13
g14
(dtRp6254
sg10
(S'\x07\xdb\x04\x05'
tRp6255
g12
(g13
g14
(dtRp6256
sg10
(S'\x07\xdb\x08\x10'
tRp6257
g12
(g13
g14
(dtRp6258
sg10
(S'\x07\xdb\x05\x07'
tRp6259
g12
(g13
g14
(dtRp6260
sg10
(S'\x07\xdb\x06\x1a'
tRp6261
g12
(g13
g14
(dtRp6262
sg10
(S'\x07\xdb\x07\x1e'
tRp6263
g12
(g13
g14
(dtRp6264
sg10
(S'\x07\xdb\n\x0c'
tRp6265
g12
(g13
g14
(dtRp6266
sg10
(S'\x07\xdb\x01\x16'
tRp6267
g12
(g13
g14
(dtRp6268
sg10
(S'\x07\xdb\x02\x05'
tRp6269
g12
(g13
g14
(dtRp6270
sg10
(S'\x07\xdb\x04\x1a'
tRp6271
g12
(g13
g14
(dtRp6272
sg10
(S'\x07\xdb\x08\x19'
tRp6273
g12
(g13
g14
(dtRp6274
sg10
(S'\x07\xdb\x05\x1e'
tRp6275
g12
(g13
g14
(dtRp6276
sg10
(S'\x07\xdb\x0c\x10'
tRp6277
g12
(g13
g14
(dtRp6278
sg10
(S'\x07\xdb\n\x15'
tRp6279
g12
(g13
g14
(dtRp6280
sg10
(S'\x07\xdb\x03\x18'
tRp6281
g12
(g13
g14
(dtRp6282
sg10
(S'\x07\xdb\x01\x19'
tRp6283
g12
(g13
g14
(dtRp6284
sg10
(S'\x07\xdb\x04\x13'
tRp6285
g12
(g13
g14
(dtRp6286
sg10
(S'\x07\xdb\x05\x19'
tRp6287
g12
(g13
g14
(dtRp6288
sg10
(S'\x07\xdb\x0c\x19'
tRp6289
g12
(g13
g14
(dtRp6290
sg10
(S'\x07\xdb\n\x1e'
tRp6291
g12
(g13
g14
(dtRp6292
sg10
(S'\x07\xdb\x03\x1f'
tRp6293
g12
(g13
g14
(dtRp6294
sg10
(S'\x07\xdb\t\x0f'
tRp6295
g12
(g13
g14
(dtRp6296
sg10
(S'\x07\xdb\x05\x10'
tRp6297
g12
(g13
g14
(dtRp6298
sg10
(S'\x07\xdb\x0c\x1e'
tRp6299
g12
(g13
g14
(dtRp6300
sg10
(S'\x07\xdb\x06\x03'
tRp6301
g12
(g13
g14
(dtRp6302
sg10
(S'\x07\xdb\x03\x16'
tRp6303
g12
(g13
g14
(dtRp6304
sg10
(S'\x07\xdb\t\x06'
tRp6305
g12
(g13
g14
(dtRp6306
sg10
(S'\x07\xdb\x07\x05'
tRp6307
g12
(g13
g14
(dtRp6308
sg10
(S'\x07\xdb\x0b\x06'
tRp6309
g12
(g13
g14
(dtRp6310
sg10
(S'\x07\xdb\x08\x06'
tRp6311
g12
(g13
g14
(dtRp6312
sg10
(S'\x07\xdb\x0c\x07'
tRp6313
g12
(g13
g14
(dtRp6314
sg10
(S'\x07\xdb\x06\x0c'
tRp6315
g12
(g13
g14
(dtRp6316
sg10
(S'\x07\xdb\x03\r'
tRp6317
g12
(g13
g14
(dtRp6318
sg10
(S'\x07\xdb\t\x19'
tRp6319
g12
(g13
g14
(dtRp6320
sg10
(S'\x07\xdb\x07\x0c'
tRp6321
g12
(g13
g14
(dtRp6322
sg10
(S'\x07\xdb\x0b\r'
tRp6323
g12
(g13
g14
(dtRp6324
sg10
(S'\x07\xdb\x02\x17'
tRp6325
g12
(g13
g14
(dtRp6326
sg10
(S'\x07\xdb\x04\x08'
tRp6327
g12
(g13
g14
(dtRp6328
sg10
(S'\x07\xdb\x08\x0f'
tRp6329
g12
(g13
g14
(dtRp6330
sg10
(S'\x07\xdb\x0c\x0c'
tRp6331
g12
(g13
g14
(dtRp6332
sg10
(S'\x07\xdb\x06\x15'
tRp6333
g12
(g13
g14
(dtRp6334
sg10
(S'\x07\xdb\x03\x04'
tRp6335
g12
(g13
g14
(dtRp6336
sg10
(S'\x07\xdb\t\x10'
tRp6337
g12
(g13
g14
(dtRp6338
sg10
(S'\x07\xdb\x07\x0b'
tRp6339
g12
(g13
g14
(dtRp6340
sg10
(S'\x07\xdb\n\x07'
tRp6341
g12
(g13
g14
(dtRp6342
sg10
(S'\x07\xdb\x0b\x14'
tRp6343
g12
(g13
g14
(dtRp6344
sg10
(S'\x07\xdb\x01\x0b'
tRp6345
g12
(g13
g14
(dtRp6346
sg10
(S'\x07\xdb\x02\x08'
tRp6347
g12
(g13
g14
(dtRp6348
sg10
(S'\x07\xdb\x04\x01'
tRp6349
g12
(g13
g14
(dtRp6350
sg10
(S'\x07\xdb\x08\x14'
tRp6351
g12
(g13
g14
(dtRp6352
sg10
(S'\x07\xdb\x05\x0b'
tRp6353
g12
(g13
g14
(dtRp6354
sg10
(S'\x07\xdb\x06\x1e'
tRp6355
g12
(g13
g14
(dtRp6356
sg10
(S'\x07\xdb\x07\x12'
tRp6357
g12
(g13
g14
(dtRp6358
sg10
(S'\x07\xdb\n\x08'
tRp6359
g12
(g13
g14
(dtRp6360
sg10
(S'\x07\xdb\x0b\x1b'
tRp6361
g12
(g13
g14
(dtRp6362
sg10
(S'\x07\xdb\x01\x12'
tRp6363
g12
(g13
g14
(dtRp6364
sg10
(S'\x07\xdb\x02\x01'
tRp6365
g12
(g13
g14
(dp6366
g900
I1
sg901
I1
sg902
I1
sg903
I1
sg904
I2
sg905
I1
sg906
I1
sg907
I2
sg908
I1
sg909
I1
sg910
I1
sg911
I1
sg912
I1
sg913
I1
sg914
I1
sg915
I1
sg916
I1
sg917
I3
sg918
I1
sg919
I1
sg920
I2
sg921
I1
sg922
I1
sg923
I1
sg924
I1
sg925
I1
sg926
I1
sg927
I1
sg928
I1
sg929
I1
sg930
I6
sg931
I1
sg932
I3
sg933
I1
sg934
I1
sg935
I1
sg936
I1
sg937
I2
sg938
I1
sg939
I1
sg940
I1
sg941
I2
sg942
I2
sg943
I1
sg944
I1
sg945
I1
sg946
I1
sg947
I1
sg948
I1
sg949
I1
sg950
I4
sVp
I2
sg951
I1
sg952
I1
sg953
I1
sg954
I1
sg955
I2
stRp6367
sg10
(S'\x07\xdb\x04\x06'
tRp6368
g12
(g13
g14
(dtRp6369
sg10
(S'\x07\xdb\x08\x1d'
tRp6370
g12
(g13
g14
(dtRp6371
sg10
(S'\x07\xdb\x05\x02'
tRp6372
g12
(g13
g14
(dtRp6373
sg10
(S'\x07\xdb\x07\x19'
tRp6374
g12
(g13
g14
(dtRp6375
sg10
(S'\x07\xdb\n\x11'
tRp6376
g12
(g13
g14
(dtRp6377
sg10
(S'\x07\xdb\x01\x15'
tRp6378
g12
(g13
g14
(dtRp6379
sg10
(S'\x07\xdb\x08\x1a'
tRp6380
g12
(g13
g14
(dtRp6381
sg10
(S'\x07\xdb\x05\x1d'
tRp6382
g12
(g13
g14
(dtRp6383
sg10
(S'\x07\xdb\x0c\x15'
tRp6384
g12
(g13
g14
(dtRp6385
sg10
(S'\x07\xdb\n\x1a'
tRp6386
g12
(g13
g14
(dtRp6387
sg10
(S'\x07\xdb\x03\x1b'
tRp6388
g12
(g13
g14
(dtRp6389
sg10
(S'\x07\xdb\t\x0b'
tRp6390
g12
(g13
g14
(dtRp6391
sg10
(S'\x07\xdb\x01\x1c'
tRp6392
g12
(g13
g14
(dtRp6393
sg10
(S'\x07\xdb\x04\x14'
tRp6394
g12
(g13
g14
(dtRp6395
sg10
(S'\x07\xdb\x05\x14'
tRp6396
g12
(g13
g14
(dtRp6397
sg10
(S'\x07\xdb\x0c\x1a'
tRp6398
g12
(g13
g14
(dtRp6399
sg10
(S'\x07\xdb\x06\x07'
tRp6400
g12
(g13
g14
(dtRp6401
sg10
(S'\x07\xdb\x03\x12'
tRp6402
g12
(g13
g14
(dtRp6403
sg10
(S'\x07\xdb\t\x02'
tRp6404
g12
(g13
g14
(dtRp6405
sg10
(S'\x07\xdb\x0b\x02'
tRp6406
g12
(g13
g14
(dtRp6407
sg10
(S'\x07\xdb\x02\x1a'
tRp6408
g12
(g13
g14
(dtRp6409
sg10
(S'\x07\xdb\x0c\x03'
tRp6410
g12
(g13
g14
(dtRp6411
sg10
(S'\x07\xdb\x03\t'
tRp6412
g12
(g13
g14
(dtRp6413
sg10
(S'\x07\xdb\t\x05'
tRp6414
g12
(g13
g14
(dtRp6415
sg10
(S'\x07\xdb\x0b\t'
tRp6416
g12
(g13
g14
(dtRp6417
sg10
(S'\x07\xdb\x02\x13'
tRp6418
g12
(g13
g14
(dtRp6419
sg10
(S'\x07\xdb\x08\x03'
tRp6420
g12
(g13
g14
(dtRp6421
sg10
(S'\x07\xdb\x0c\x08'
tRp6422
g12
(g13
g14
(dtRp6423
sg10
(S'\x07\xdb\x06\t'
tRp6424
g12
(g13
g14
(dtRp6425
sg10
(S'\x07\xdb\t\x1c'
tRp6426
g12
(g13
g14
(dtRp6427
sg10
(S'\x07\xdb\x07\x0f'
tRp6428
g12
(g13
g14
(dtRp6429
sg10
(S'\x07\xdb\n\x03'
tRp6430
g12
(g13
g14
(dtRp6431
sg10
(S'\x07\xdb\x0b\x10'
tRp6432
g12
(g13
g14
(dtRp6433
sg10
(S'\x07\xdb\x01\x07'
tRp6434
g12
(g13
g14
(dtRp6435
sg10
(S'\x07\xdb\x02\x14'
tRp6436
g12
(g13
g14
(dtRp6437
sg10
(S'\x07\xdb\x04\r'
tRp6438
g12
(g13
g14
(dtRp6439
sg10
(S'\x07\xdb\x08\x08'
tRp6440
g12
(g13
g14
(dtRp6441
sg10
(S'\x07\xdb\x05\x0f'
tRp6442
g12
(g13
g14
(dtRp6443
sg10
(S'\x07\xdb\x06\x12'
tRp6444
g12
(g13
g14
(dtRp6445
sg10
(S'\x07\xdb\x03\x07'
tRp6446
g12
(g13
g14
(dtRp6447
sg10
(S'\x07\xdb\t\x17'
tRp6448
g12
(g13
g14
(dtRp6449
sg10
(S'\x07\xdb\x07\x16'
tRp6450
g12
(g13
g14
(dtRp6451
sg10
(S'\x07\xdb\n\x04'
tRp6452
g12
(g13
g14
(dtRp6453
sg10
(S'\x07\xdb\x0b\x17'
tRp6454
g12
(g13
g14
(dtRp6455
sg10
(S'\x07\xdb\x01\x0e'
tRp6456
g12
(g13
g14
(dtRp6457
sg10
(S'\x07\xdb\x02\r'
tRp6458
g12
(g13
g14
(dtRp6459
sg10
(S'\x07\xdb\x04\x02'
tRp6460
g12
(g13
g14
(dtRp6461
sg10
(S'\x07\xdb\x08\x11'
tRp6462
g12
(g13
g14
(dtRp6463
sg10
(S'\x07\xdb\x05\x06'
tRp6464
g12
(g13
g14
(dtRp6465
sg10
(S'\x07\xdb\x06\x1b'
tRp6466
g12
(g13
g14
(dtRp6467
sg10
(S'\x07\xdb\x07\x1d'
tRp6468
g12
(g13
g14
(dtRp6469
sg10
(S'\x07\xdb\n\r'
tRp6470
g12
(g13
g14
(dtRp6471
sg10
(S'\x07\xdb\x0b\x1e'
tRp6472
g12
(g13
g14
(dtRp6473
sg10
(S'\x07\xdb\x01\x11'
tRp6474
g12
(g13
g14
(dtRp6475
sg10
(S'\x07\xdb\x02\x06'
tRp6476
g12
(g13
g14
(dtRp6477
sg10
(S'\x07\xdb\x04\x1b'
tRp6478
g12
(g13
g14
(dtRp6479
sg10
(S'\x07\xdb\x08\x1e'
tRp6480
g12
(g13
g14
(dtRp6481
sg10
(S'\x07\xdb\x05\x01'
tRp6482
g12
(g13
g14
(dtRp6483
sg10
(S'\x07\xdb\x0c\x11'
tRp6484
g12
(g13
g14
(dtRp6485
sg10
(S'\x07\xdb\n\x16'
tRp6486
g12
(g13
g14
(dtRp6487
sg10
(S'\x07\xdb\x01\x18'
tRp6488
g12
(g13
g14
(dtRp6489
sg10
(S'\x07\xdb\x04\x10'
tRp6490
g12
(g13
g14
(dtRp6491
sg10
(S'\x07\xdb\x05\x18'
tRp6492
g12
(g13
g14
(dtRp6493
sg10
(S'\x07\xdb\x0c\x16'
tRp6494
g12
(g13
g14
(dtRp6495
sg10
(S'\x07\xdb\n\x1f'
tRp6496
g12
(g13
g14
(dtRp6497
sg10
(S'\x07\xdb\x03\x1e'
tRp6498
g12
(g13
g14
(dtRp6499
sg10
(S'\x07\xdb\t\x0e'
tRp6500
g12
(g13
g14
(dtRp6501
sg10
(S'\x07\xdb\x05\x13'
tRp6502
g12
(g13
g14
(dtRp6503
sg10
(S'\x07\xdb\x0c\x1f'
tRp6504
g12
(g13
g14
(dtRp6505
sg10
(S'\x07\xdb\x06\x04'
tRp6506
g12
(g13
g14
(dtRp6507
sg10
(S'\x07\xdb\x03\x15'
tRp6508
g12
(g13
g14
(dtRp6509
sg10
(S'\x07\xdb\t\x01'
tRp6510
g12
(g13
g14
(dtRp6511
sg10
(S'\x07\xdb\x07\x04'
tRp6512
g12
(g13
g14
(dtRp6513
ssbssb.